; Listing generated by Microsoft (R) Optimizing Compiler Version 16.00.30319.01 

	TITLE	C:\Users\tdrol\documents\visual studio 2010\Projects\parking\detector\TestDetector.cpp
	.686P
	.XMM
	include listing.inc
	.model	flat

INCLUDELIB MSVCRTD
INCLUDELIB OLDNAMES

PUBLIC	?value@?$integral_constant@_N$0A@@tr1@std@@2_NB	; std::tr1::integral_constant<bool,0>::value
PUBLIC	?value@?$integral_constant@_N$00@tr1@std@@2_NB	; std::tr1::integral_constant<bool,1>::value
PUBLIC	?value@?$integral_constant@I$0A@@tr1@std@@2IB	; std::tr1::integral_constant<unsigned int,0>::value
PUBLIC	?_Rank@?$_Arithmetic_traits@_N@std@@2HB		; std::_Arithmetic_traits<bool>::_Rank
PUBLIC	?_Rank@?$_Arithmetic_traits@D@std@@2HB		; std::_Arithmetic_traits<char>::_Rank
PUBLIC	?_Rank@?$_Arithmetic_traits@C@std@@2HB		; std::_Arithmetic_traits<signed char>::_Rank
PUBLIC	?_Rank@?$_Arithmetic_traits@E@std@@2HB		; std::_Arithmetic_traits<unsigned char>::_Rank
PUBLIC	?_Rank@?$_Arithmetic_traits@F@std@@2HB		; std::_Arithmetic_traits<short>::_Rank
PUBLIC	?_Rank@?$_Arithmetic_traits@G@std@@2HB		; std::_Arithmetic_traits<unsigned short>::_Rank
PUBLIC	?_Rank@?$_Arithmetic_traits@H@std@@2HB		; std::_Arithmetic_traits<int>::_Rank
PUBLIC	?_Rank@?$_Arithmetic_traits@I@std@@2HB		; std::_Arithmetic_traits<unsigned int>::_Rank
PUBLIC	?_Rank@?$_Arithmetic_traits@J@std@@2HB		; std::_Arithmetic_traits<long>::_Rank
PUBLIC	?_Rank@?$_Arithmetic_traits@K@std@@2HB		; std::_Arithmetic_traits<unsigned long>::_Rank
PUBLIC	?_Rank@?$_Arithmetic_traits@_J@std@@2HB		; std::_Arithmetic_traits<__int64>::_Rank
PUBLIC	?_Rank@?$_Arithmetic_traits@_K@std@@2HB		; std::_Arithmetic_traits<unsigned __int64>::_Rank
PUBLIC	?_Rank@?$_Arithmetic_traits@M@std@@2HB		; std::_Arithmetic_traits<float>::_Rank
PUBLIC	?_Rank@?$_Arithmetic_traits@N@std@@2HB		; std::_Arithmetic_traits<double>::_Rank
PUBLIC	?_Rank@?$_Arithmetic_traits@O@std@@2HB		; std::_Arithmetic_traits<long double>::_Rank
PUBLIC	?collate@?$_Locbase@H@std@@2HB			; std::_Locbase<int>::collate
PUBLIC	?ctype@?$_Locbase@H@std@@2HB			; std::_Locbase<int>::ctype
PUBLIC	?monetary@?$_Locbase@H@std@@2HB			; std::_Locbase<int>::monetary
PUBLIC	?numeric@?$_Locbase@H@std@@2HB			; std::_Locbase<int>::numeric
PUBLIC	?time@?$_Locbase@H@std@@2HB			; std::_Locbase<int>::time
PUBLIC	?messages@?$_Locbase@H@std@@2HB			; std::_Locbase<int>::messages
PUBLIC	?all@?$_Locbase@H@std@@2HB			; std::_Locbase<int>::all
PUBLIC	?none@?$_Locbase@H@std@@2HB			; std::_Locbase<int>::none
PUBLIC	?skipws@?$_Iosb@H@std@@2W4_Fmtflags@12@B	; std::_Iosb<int>::skipws
PUBLIC	?unitbuf@?$_Iosb@H@std@@2W4_Fmtflags@12@B	; std::_Iosb<int>::unitbuf
PUBLIC	?uppercase@?$_Iosb@H@std@@2W4_Fmtflags@12@B	; std::_Iosb<int>::uppercase
PUBLIC	?showbase@?$_Iosb@H@std@@2W4_Fmtflags@12@B	; std::_Iosb<int>::showbase
PUBLIC	?showpoint@?$_Iosb@H@std@@2W4_Fmtflags@12@B	; std::_Iosb<int>::showpoint
PUBLIC	?showpos@?$_Iosb@H@std@@2W4_Fmtflags@12@B	; std::_Iosb<int>::showpos
PUBLIC	?left@?$_Iosb@H@std@@2W4_Fmtflags@12@B		; std::_Iosb<int>::left
PUBLIC	?right@?$_Iosb@H@std@@2W4_Fmtflags@12@B		; std::_Iosb<int>::right
PUBLIC	?internal@?$_Iosb@H@std@@2W4_Fmtflags@12@B	; std::_Iosb<int>::internal
PUBLIC	?dec@?$_Iosb@H@std@@2W4_Fmtflags@12@B		; std::_Iosb<int>::dec
PUBLIC	?oct@?$_Iosb@H@std@@2W4_Fmtflags@12@B		; std::_Iosb<int>::oct
PUBLIC	?hex@?$_Iosb@H@std@@2W4_Fmtflags@12@B		; std::_Iosb<int>::hex
PUBLIC	?scientific@?$_Iosb@H@std@@2W4_Fmtflags@12@B	; std::_Iosb<int>::scientific
PUBLIC	?fixed@?$_Iosb@H@std@@2W4_Fmtflags@12@B		; std::_Iosb<int>::fixed
PUBLIC	?hexfloat@?$_Iosb@H@std@@2W4_Fmtflags@12@B	; std::_Iosb<int>::hexfloat
PUBLIC	?boolalpha@?$_Iosb@H@std@@2W4_Fmtflags@12@B	; std::_Iosb<int>::boolalpha
PUBLIC	?_Stdio@?$_Iosb@H@std@@2W4_Fmtflags@12@B	; std::_Iosb<int>::_Stdio
PUBLIC	?adjustfield@?$_Iosb@H@std@@2W4_Fmtflags@12@B	; std::_Iosb<int>::adjustfield
PUBLIC	?basefield@?$_Iosb@H@std@@2W4_Fmtflags@12@B	; std::_Iosb<int>::basefield
PUBLIC	?floatfield@?$_Iosb@H@std@@2W4_Fmtflags@12@B	; std::_Iosb<int>::floatfield
PUBLIC	?goodbit@?$_Iosb@H@std@@2W4_Iostate@12@B	; std::_Iosb<int>::goodbit
PUBLIC	?eofbit@?$_Iosb@H@std@@2W4_Iostate@12@B		; std::_Iosb<int>::eofbit
PUBLIC	?failbit@?$_Iosb@H@std@@2W4_Iostate@12@B	; std::_Iosb<int>::failbit
PUBLIC	?badbit@?$_Iosb@H@std@@2W4_Iostate@12@B		; std::_Iosb<int>::badbit
PUBLIC	?_Hardfail@?$_Iosb@H@std@@2W4_Iostate@12@B	; std::_Iosb<int>::_Hardfail
PUBLIC	?in@?$_Iosb@H@std@@2W4_Openmode@12@B		; std::_Iosb<int>::in
PUBLIC	?out@?$_Iosb@H@std@@2W4_Openmode@12@B		; std::_Iosb<int>::out
PUBLIC	?ate@?$_Iosb@H@std@@2W4_Openmode@12@B		; std::_Iosb<int>::ate
PUBLIC	?app@?$_Iosb@H@std@@2W4_Openmode@12@B		; std::_Iosb<int>::app
PUBLIC	?trunc@?$_Iosb@H@std@@2W4_Openmode@12@B		; std::_Iosb<int>::trunc
PUBLIC	?_Nocreate@?$_Iosb@H@std@@2W4_Openmode@12@B	; std::_Iosb<int>::_Nocreate
PUBLIC	?_Noreplace@?$_Iosb@H@std@@2W4_Openmode@12@B	; std::_Iosb<int>::_Noreplace
PUBLIC	?binary@?$_Iosb@H@std@@2W4_Openmode@12@B	; std::_Iosb<int>::binary
PUBLIC	?beg@?$_Iosb@H@std@@2W4_Seekdir@12@B		; std::_Iosb<int>::beg
PUBLIC	?cur@?$_Iosb@H@std@@2W4_Seekdir@12@B		; std::_Iosb<int>::cur
PUBLIC	?end@?$_Iosb@H@std@@2W4_Seekdir@12@B		; std::_Iosb<int>::end
PUBLIC	?DEFAULT_NOCTAVES@CommonParams@SIFT@cv@@2HB	; cv::SIFT::CommonParams::DEFAULT_NOCTAVES
PUBLIC	?DEFAULT_NOCTAVE_LAYERS@CommonParams@SIFT@cv@@2HB ; cv::SIFT::CommonParams::DEFAULT_NOCTAVE_LAYERS
PUBLIC	?DEFAULT_FIRST_OCTAVE@CommonParams@SIFT@cv@@2HB	; cv::SIFT::CommonParams::DEFAULT_FIRST_OCTAVE
PUBLIC	?DEFAULT_IS_NORMALIZE@DescriptorParams@SIFT@cv@@2_NB ; cv::SIFT::DescriptorParams::DEFAULT_IS_NORMALIZE
PUBLIC	?DESCRIPTOR_SIZE@DescriptorParams@SIFT@cv@@2HB	; cv::SIFT::DescriptorParams::DESCRIPTOR_SIZE
PUBLIC	?kKernelWidth@ORB@cv@@0HB			; cv::ORB::kKernelWidth
PUBLIC	?PATCH_SIZE@RandomizedTree@cv@@2EB		; cv::RandomizedTree::PATCH_SIZE
PUBLIC	?DEFAULT_DEPTH@RandomizedTree@cv@@2HB		; cv::RandomizedTree::DEFAULT_DEPTH
PUBLIC	?DEFAULT_VIEWS@RandomizedTree@cv@@2HB		; cv::RandomizedTree::DEFAULT_VIEWS
PUBLIC	?DEFAULT_REDUCED_NUM_DIM@RandomizedTree@cv@@2IB	; cv::RandomizedTree::DEFAULT_REDUCED_NUM_DIM
PUBLIC	?DEFAULT_TREES@RTreeClassifier@cv@@2HB		; cv::RTreeClassifier::DEFAULT_TREES
PUBLIC	?DEFAULT_NUM_QUANT_BITS@RTreeClassifier@cv@@2IB	; cv::RTreeClassifier::DEFAULT_NUM_QUANT_BITS
PUBLIC	?PATCH_SIZE@BriefDescriptorExtractor@cv@@2HB	; cv::BriefDescriptorExtractor::PATCH_SIZE
PUBLIC	?KERNEL_SIZE@BriefDescriptorExtractor@cv@@2HB	; cv::BriefDescriptorExtractor::KERNEL_SIZE
PUBLIC	?POSE_COUNT@Params@OneWayDescriptorMatcher@cv@@2HB ; cv::OneWayDescriptorMatcher::Params::POSE_COUNT
PUBLIC	?PATCH_WIDTH@Params@OneWayDescriptorMatcher@cv@@2HB ; cv::OneWayDescriptorMatcher::Params::PATCH_WIDTH
PUBLIC	?PATCH_HEIGHT@Params@OneWayDescriptorMatcher@cv@@2HB ; cv::OneWayDescriptorMatcher::Params::PATCH_HEIGHT
PUBLIC	?cell_bit_size_@DynamicBitset@@0IB		; DynamicBitset::cell_bit_size_
;	COMDAT ?cell_bit_size_@DynamicBitset@@0IB
CONST	SEGMENT
?cell_bit_size_@DynamicBitset@@0IB DD 020H		; DynamicBitset::cell_bit_size_
CONST	ENDS
;	COMDAT ?PATCH_HEIGHT@Params@OneWayDescriptorMatcher@cv@@2HB
CONST	SEGMENT
?PATCH_HEIGHT@Params@OneWayDescriptorMatcher@cv@@2HB DD 018H ; cv::OneWayDescriptorMatcher::Params::PATCH_HEIGHT
CONST	ENDS
;	COMDAT ?PATCH_WIDTH@Params@OneWayDescriptorMatcher@cv@@2HB
CONST	SEGMENT
?PATCH_WIDTH@Params@OneWayDescriptorMatcher@cv@@2HB DD 018H ; cv::OneWayDescriptorMatcher::Params::PATCH_WIDTH
CONST	ENDS
;	COMDAT ?POSE_COUNT@Params@OneWayDescriptorMatcher@cv@@2HB
CONST	SEGMENT
?POSE_COUNT@Params@OneWayDescriptorMatcher@cv@@2HB DD 01f4H ; cv::OneWayDescriptorMatcher::Params::POSE_COUNT
CONST	ENDS
;	COMDAT ?KERNEL_SIZE@BriefDescriptorExtractor@cv@@2HB
CONST	SEGMENT
?KERNEL_SIZE@BriefDescriptorExtractor@cv@@2HB DD 09H	; cv::BriefDescriptorExtractor::KERNEL_SIZE
CONST	ENDS
;	COMDAT ?PATCH_SIZE@BriefDescriptorExtractor@cv@@2HB
CONST	SEGMENT
?PATCH_SIZE@BriefDescriptorExtractor@cv@@2HB DD 030H	; cv::BriefDescriptorExtractor::PATCH_SIZE
CONST	ENDS
;	COMDAT ?DEFAULT_NUM_QUANT_BITS@RTreeClassifier@cv@@2IB
CONST	SEGMENT
?DEFAULT_NUM_QUANT_BITS@RTreeClassifier@cv@@2IB DD 04H	; cv::RTreeClassifier::DEFAULT_NUM_QUANT_BITS
CONST	ENDS
;	COMDAT ?DEFAULT_TREES@RTreeClassifier@cv@@2HB
CONST	SEGMENT
?DEFAULT_TREES@RTreeClassifier@cv@@2HB DD 030H		; cv::RTreeClassifier::DEFAULT_TREES
CONST	ENDS
;	COMDAT ?DEFAULT_REDUCED_NUM_DIM@RandomizedTree@cv@@2IB
CONST	SEGMENT
?DEFAULT_REDUCED_NUM_DIM@RandomizedTree@cv@@2IB DD 0b0H	; cv::RandomizedTree::DEFAULT_REDUCED_NUM_DIM
CONST	ENDS
;	COMDAT ?DEFAULT_VIEWS@RandomizedTree@cv@@2HB
CONST	SEGMENT
?DEFAULT_VIEWS@RandomizedTree@cv@@2HB DD 01388H		; cv::RandomizedTree::DEFAULT_VIEWS
CONST	ENDS
;	COMDAT ?DEFAULT_DEPTH@RandomizedTree@cv@@2HB
CONST	SEGMENT
?DEFAULT_DEPTH@RandomizedTree@cv@@2HB DD 09H		; cv::RandomizedTree::DEFAULT_DEPTH
CONST	ENDS
;	COMDAT ?PATCH_SIZE@RandomizedTree@cv@@2EB
CONST	SEGMENT
?PATCH_SIZE@RandomizedTree@cv@@2EB DB 020H		; cv::RandomizedTree::PATCH_SIZE
CONST	ENDS
;	COMDAT ?kKernelWidth@ORB@cv@@0HB
CONST	SEGMENT
?kKernelWidth@ORB@cv@@0HB DD 05H			; cv::ORB::kKernelWidth
CONST	ENDS
;	COMDAT ?DESCRIPTOR_SIZE@DescriptorParams@SIFT@cv@@2HB
CONST	SEGMENT
?DESCRIPTOR_SIZE@DescriptorParams@SIFT@cv@@2HB DD 080H	; cv::SIFT::DescriptorParams::DESCRIPTOR_SIZE
CONST	ENDS
;	COMDAT ?DEFAULT_IS_NORMALIZE@DescriptorParams@SIFT@cv@@2_NB
CONST	SEGMENT
?DEFAULT_IS_NORMALIZE@DescriptorParams@SIFT@cv@@2_NB DB 01H ; cv::SIFT::DescriptorParams::DEFAULT_IS_NORMALIZE
CONST	ENDS
;	COMDAT ?DEFAULT_FIRST_OCTAVE@CommonParams@SIFT@cv@@2HB
CONST	SEGMENT
?DEFAULT_FIRST_OCTAVE@CommonParams@SIFT@cv@@2HB DD 0ffffffffH ; cv::SIFT::CommonParams::DEFAULT_FIRST_OCTAVE
CONST	ENDS
;	COMDAT ?DEFAULT_NOCTAVE_LAYERS@CommonParams@SIFT@cv@@2HB
CONST	SEGMENT
?DEFAULT_NOCTAVE_LAYERS@CommonParams@SIFT@cv@@2HB DD 03H ; cv::SIFT::CommonParams::DEFAULT_NOCTAVE_LAYERS
CONST	ENDS
;	COMDAT ?DEFAULT_NOCTAVES@CommonParams@SIFT@cv@@2HB
CONST	SEGMENT
?DEFAULT_NOCTAVES@CommonParams@SIFT@cv@@2HB DD 04H	; cv::SIFT::CommonParams::DEFAULT_NOCTAVES
CONST	ENDS
;	COMDAT ?end@?$_Iosb@H@std@@2W4_Seekdir@12@B
CONST	SEGMENT
?end@?$_Iosb@H@std@@2W4_Seekdir@12@B DD 02H		; std::_Iosb<int>::end
CONST	ENDS
;	COMDAT ?cur@?$_Iosb@H@std@@2W4_Seekdir@12@B
CONST	SEGMENT
?cur@?$_Iosb@H@std@@2W4_Seekdir@12@B DD 01H		; std::_Iosb<int>::cur
CONST	ENDS
;	COMDAT ?beg@?$_Iosb@H@std@@2W4_Seekdir@12@B
CONST	SEGMENT
?beg@?$_Iosb@H@std@@2W4_Seekdir@12@B DD 00H		; std::_Iosb<int>::beg
CONST	ENDS
;	COMDAT ?binary@?$_Iosb@H@std@@2W4_Openmode@12@B
CONST	SEGMENT
?binary@?$_Iosb@H@std@@2W4_Openmode@12@B DD 020H	; std::_Iosb<int>::binary
CONST	ENDS
;	COMDAT ?_Noreplace@?$_Iosb@H@std@@2W4_Openmode@12@B
CONST	SEGMENT
?_Noreplace@?$_Iosb@H@std@@2W4_Openmode@12@B DD 080H	; std::_Iosb<int>::_Noreplace
CONST	ENDS
;	COMDAT ?_Nocreate@?$_Iosb@H@std@@2W4_Openmode@12@B
CONST	SEGMENT
?_Nocreate@?$_Iosb@H@std@@2W4_Openmode@12@B DD 040H	; std::_Iosb<int>::_Nocreate
CONST	ENDS
;	COMDAT ?trunc@?$_Iosb@H@std@@2W4_Openmode@12@B
CONST	SEGMENT
?trunc@?$_Iosb@H@std@@2W4_Openmode@12@B DD 010H		; std::_Iosb<int>::trunc
CONST	ENDS
;	COMDAT ?app@?$_Iosb@H@std@@2W4_Openmode@12@B
CONST	SEGMENT
?app@?$_Iosb@H@std@@2W4_Openmode@12@B DD 08H		; std::_Iosb<int>::app
CONST	ENDS
;	COMDAT ?ate@?$_Iosb@H@std@@2W4_Openmode@12@B
CONST	SEGMENT
?ate@?$_Iosb@H@std@@2W4_Openmode@12@B DD 04H		; std::_Iosb<int>::ate
CONST	ENDS
;	COMDAT ?out@?$_Iosb@H@std@@2W4_Openmode@12@B
CONST	SEGMENT
?out@?$_Iosb@H@std@@2W4_Openmode@12@B DD 02H		; std::_Iosb<int>::out
CONST	ENDS
;	COMDAT ?in@?$_Iosb@H@std@@2W4_Openmode@12@B
CONST	SEGMENT
?in@?$_Iosb@H@std@@2W4_Openmode@12@B DD 01H		; std::_Iosb<int>::in
CONST	ENDS
;	COMDAT ?_Hardfail@?$_Iosb@H@std@@2W4_Iostate@12@B
CONST	SEGMENT
?_Hardfail@?$_Iosb@H@std@@2W4_Iostate@12@B DD 010H	; std::_Iosb<int>::_Hardfail
CONST	ENDS
;	COMDAT ?badbit@?$_Iosb@H@std@@2W4_Iostate@12@B
CONST	SEGMENT
?badbit@?$_Iosb@H@std@@2W4_Iostate@12@B DD 04H		; std::_Iosb<int>::badbit
CONST	ENDS
;	COMDAT ?failbit@?$_Iosb@H@std@@2W4_Iostate@12@B
CONST	SEGMENT
?failbit@?$_Iosb@H@std@@2W4_Iostate@12@B DD 02H		; std::_Iosb<int>::failbit
CONST	ENDS
;	COMDAT ?eofbit@?$_Iosb@H@std@@2W4_Iostate@12@B
CONST	SEGMENT
?eofbit@?$_Iosb@H@std@@2W4_Iostate@12@B DD 01H		; std::_Iosb<int>::eofbit
CONST	ENDS
;	COMDAT ?goodbit@?$_Iosb@H@std@@2W4_Iostate@12@B
CONST	SEGMENT
?goodbit@?$_Iosb@H@std@@2W4_Iostate@12@B DD 00H		; std::_Iosb<int>::goodbit
CONST	ENDS
;	COMDAT ?floatfield@?$_Iosb@H@std@@2W4_Fmtflags@12@B
CONST	SEGMENT
?floatfield@?$_Iosb@H@std@@2W4_Fmtflags@12@B DD 03000H	; std::_Iosb<int>::floatfield
CONST	ENDS
;	COMDAT ?basefield@?$_Iosb@H@std@@2W4_Fmtflags@12@B
CONST	SEGMENT
?basefield@?$_Iosb@H@std@@2W4_Fmtflags@12@B DD 0e00H	; std::_Iosb<int>::basefield
CONST	ENDS
;	COMDAT ?adjustfield@?$_Iosb@H@std@@2W4_Fmtflags@12@B
CONST	SEGMENT
?adjustfield@?$_Iosb@H@std@@2W4_Fmtflags@12@B DD 01c0H	; std::_Iosb<int>::adjustfield
CONST	ENDS
;	COMDAT ?_Stdio@?$_Iosb@H@std@@2W4_Fmtflags@12@B
CONST	SEGMENT
?_Stdio@?$_Iosb@H@std@@2W4_Fmtflags@12@B DD 08000H	; std::_Iosb<int>::_Stdio
CONST	ENDS
;	COMDAT ?boolalpha@?$_Iosb@H@std@@2W4_Fmtflags@12@B
CONST	SEGMENT
?boolalpha@?$_Iosb@H@std@@2W4_Fmtflags@12@B DD 04000H	; std::_Iosb<int>::boolalpha
CONST	ENDS
;	COMDAT ?hexfloat@?$_Iosb@H@std@@2W4_Fmtflags@12@B
CONST	SEGMENT
?hexfloat@?$_Iosb@H@std@@2W4_Fmtflags@12@B DD 03000H	; std::_Iosb<int>::hexfloat
CONST	ENDS
;	COMDAT ?fixed@?$_Iosb@H@std@@2W4_Fmtflags@12@B
CONST	SEGMENT
?fixed@?$_Iosb@H@std@@2W4_Fmtflags@12@B DD 02000H	; std::_Iosb<int>::fixed
CONST	ENDS
;	COMDAT ?scientific@?$_Iosb@H@std@@2W4_Fmtflags@12@B
CONST	SEGMENT
?scientific@?$_Iosb@H@std@@2W4_Fmtflags@12@B DD 01000H	; std::_Iosb<int>::scientific
CONST	ENDS
;	COMDAT ?hex@?$_Iosb@H@std@@2W4_Fmtflags@12@B
CONST	SEGMENT
?hex@?$_Iosb@H@std@@2W4_Fmtflags@12@B DD 0800H		; std::_Iosb<int>::hex
CONST	ENDS
;	COMDAT ?oct@?$_Iosb@H@std@@2W4_Fmtflags@12@B
CONST	SEGMENT
?oct@?$_Iosb@H@std@@2W4_Fmtflags@12@B DD 0400H		; std::_Iosb<int>::oct
CONST	ENDS
;	COMDAT ?dec@?$_Iosb@H@std@@2W4_Fmtflags@12@B
CONST	SEGMENT
?dec@?$_Iosb@H@std@@2W4_Fmtflags@12@B DD 0200H		; std::_Iosb<int>::dec
CONST	ENDS
;	COMDAT ?internal@?$_Iosb@H@std@@2W4_Fmtflags@12@B
CONST	SEGMENT
?internal@?$_Iosb@H@std@@2W4_Fmtflags@12@B DD 0100H	; std::_Iosb<int>::internal
CONST	ENDS
;	COMDAT ?right@?$_Iosb@H@std@@2W4_Fmtflags@12@B
CONST	SEGMENT
?right@?$_Iosb@H@std@@2W4_Fmtflags@12@B DD 080H		; std::_Iosb<int>::right
CONST	ENDS
;	COMDAT ?left@?$_Iosb@H@std@@2W4_Fmtflags@12@B
CONST	SEGMENT
?left@?$_Iosb@H@std@@2W4_Fmtflags@12@B DD 040H		; std::_Iosb<int>::left
CONST	ENDS
;	COMDAT ?showpos@?$_Iosb@H@std@@2W4_Fmtflags@12@B
CONST	SEGMENT
?showpos@?$_Iosb@H@std@@2W4_Fmtflags@12@B DD 020H	; std::_Iosb<int>::showpos
CONST	ENDS
;	COMDAT ?showpoint@?$_Iosb@H@std@@2W4_Fmtflags@12@B
CONST	SEGMENT
?showpoint@?$_Iosb@H@std@@2W4_Fmtflags@12@B DD 010H	; std::_Iosb<int>::showpoint
CONST	ENDS
;	COMDAT ?showbase@?$_Iosb@H@std@@2W4_Fmtflags@12@B
CONST	SEGMENT
?showbase@?$_Iosb@H@std@@2W4_Fmtflags@12@B DD 08H	; std::_Iosb<int>::showbase
CONST	ENDS
;	COMDAT ?uppercase@?$_Iosb@H@std@@2W4_Fmtflags@12@B
CONST	SEGMENT
?uppercase@?$_Iosb@H@std@@2W4_Fmtflags@12@B DD 04H	; std::_Iosb<int>::uppercase
CONST	ENDS
;	COMDAT ?unitbuf@?$_Iosb@H@std@@2W4_Fmtflags@12@B
CONST	SEGMENT
?unitbuf@?$_Iosb@H@std@@2W4_Fmtflags@12@B DD 02H	; std::_Iosb<int>::unitbuf
CONST	ENDS
;	COMDAT ?skipws@?$_Iosb@H@std@@2W4_Fmtflags@12@B
CONST	SEGMENT
?skipws@?$_Iosb@H@std@@2W4_Fmtflags@12@B DD 01H		; std::_Iosb<int>::skipws
CONST	ENDS
;	COMDAT ?none@?$_Locbase@H@std@@2HB
CONST	SEGMENT
?none@?$_Locbase@H@std@@2HB DD 00H			; std::_Locbase<int>::none
CONST	ENDS
;	COMDAT ?all@?$_Locbase@H@std@@2HB
CONST	SEGMENT
?all@?$_Locbase@H@std@@2HB DD 03fH			; std::_Locbase<int>::all
CONST	ENDS
;	COMDAT ?messages@?$_Locbase@H@std@@2HB
CONST	SEGMENT
?messages@?$_Locbase@H@std@@2HB DD 020H			; std::_Locbase<int>::messages
CONST	ENDS
;	COMDAT ?time@?$_Locbase@H@std@@2HB
CONST	SEGMENT
?time@?$_Locbase@H@std@@2HB DD 010H			; std::_Locbase<int>::time
CONST	ENDS
;	COMDAT ?numeric@?$_Locbase@H@std@@2HB
CONST	SEGMENT
?numeric@?$_Locbase@H@std@@2HB DD 08H			; std::_Locbase<int>::numeric
CONST	ENDS
;	COMDAT ?monetary@?$_Locbase@H@std@@2HB
CONST	SEGMENT
?monetary@?$_Locbase@H@std@@2HB DD 04H			; std::_Locbase<int>::monetary
CONST	ENDS
;	COMDAT ?ctype@?$_Locbase@H@std@@2HB
CONST	SEGMENT
?ctype@?$_Locbase@H@std@@2HB DD 02H			; std::_Locbase<int>::ctype
CONST	ENDS
;	COMDAT ?collate@?$_Locbase@H@std@@2HB
CONST	SEGMENT
?collate@?$_Locbase@H@std@@2HB DD 01H			; std::_Locbase<int>::collate
CONST	ENDS
;	COMDAT ?_Rank@?$_Arithmetic_traits@O@std@@2HB
CONST	SEGMENT
?_Rank@?$_Arithmetic_traits@O@std@@2HB DD 09H		; std::_Arithmetic_traits<long double>::_Rank
CONST	ENDS
;	COMDAT ?_Rank@?$_Arithmetic_traits@N@std@@2HB
CONST	SEGMENT
?_Rank@?$_Arithmetic_traits@N@std@@2HB DD 08H		; std::_Arithmetic_traits<double>::_Rank
CONST	ENDS
;	COMDAT ?_Rank@?$_Arithmetic_traits@M@std@@2HB
CONST	SEGMENT
?_Rank@?$_Arithmetic_traits@M@std@@2HB DD 07H		; std::_Arithmetic_traits<float>::_Rank
CONST	ENDS
;	COMDAT ?_Rank@?$_Arithmetic_traits@_K@std@@2HB
CONST	SEGMENT
?_Rank@?$_Arithmetic_traits@_K@std@@2HB DD 06H		; std::_Arithmetic_traits<unsigned __int64>::_Rank
CONST	ENDS
;	COMDAT ?_Rank@?$_Arithmetic_traits@_J@std@@2HB
CONST	SEGMENT
?_Rank@?$_Arithmetic_traits@_J@std@@2HB DD 06H		; std::_Arithmetic_traits<__int64>::_Rank
CONST	ENDS
;	COMDAT ?_Rank@?$_Arithmetic_traits@K@std@@2HB
CONST	SEGMENT
?_Rank@?$_Arithmetic_traits@K@std@@2HB DD 05H		; std::_Arithmetic_traits<unsigned long>::_Rank
CONST	ENDS
;	COMDAT ?_Rank@?$_Arithmetic_traits@J@std@@2HB
CONST	SEGMENT
?_Rank@?$_Arithmetic_traits@J@std@@2HB DD 05H		; std::_Arithmetic_traits<long>::_Rank
CONST	ENDS
;	COMDAT ?_Rank@?$_Arithmetic_traits@I@std@@2HB
CONST	SEGMENT
?_Rank@?$_Arithmetic_traits@I@std@@2HB DD 04H		; std::_Arithmetic_traits<unsigned int>::_Rank
CONST	ENDS
;	COMDAT ?_Rank@?$_Arithmetic_traits@H@std@@2HB
CONST	SEGMENT
?_Rank@?$_Arithmetic_traits@H@std@@2HB DD 04H		; std::_Arithmetic_traits<int>::_Rank
CONST	ENDS
;	COMDAT ?_Rank@?$_Arithmetic_traits@G@std@@2HB
CONST	SEGMENT
?_Rank@?$_Arithmetic_traits@G@std@@2HB DD 03H		; std::_Arithmetic_traits<unsigned short>::_Rank
CONST	ENDS
;	COMDAT ?_Rank@?$_Arithmetic_traits@F@std@@2HB
CONST	SEGMENT
?_Rank@?$_Arithmetic_traits@F@std@@2HB DD 03H		; std::_Arithmetic_traits<short>::_Rank
CONST	ENDS
;	COMDAT ?_Rank@?$_Arithmetic_traits@E@std@@2HB
CONST	SEGMENT
?_Rank@?$_Arithmetic_traits@E@std@@2HB DD 02H		; std::_Arithmetic_traits<unsigned char>::_Rank
CONST	ENDS
;	COMDAT ?_Rank@?$_Arithmetic_traits@C@std@@2HB
CONST	SEGMENT
?_Rank@?$_Arithmetic_traits@C@std@@2HB DD 02H		; std::_Arithmetic_traits<signed char>::_Rank
CONST	ENDS
;	COMDAT ?_Rank@?$_Arithmetic_traits@D@std@@2HB
CONST	SEGMENT
?_Rank@?$_Arithmetic_traits@D@std@@2HB DD 02H		; std::_Arithmetic_traits<char>::_Rank
CONST	ENDS
;	COMDAT ?_Rank@?$_Arithmetic_traits@_N@std@@2HB
CONST	SEGMENT
?_Rank@?$_Arithmetic_traits@_N@std@@2HB DD 01H		; std::_Arithmetic_traits<bool>::_Rank
CONST	ENDS
;	COMDAT ?value@?$integral_constant@I$0A@@tr1@std@@2IB
CONST	SEGMENT
?value@?$integral_constant@I$0A@@tr1@std@@2IB DD 00H	; std::tr1::integral_constant<unsigned int,0>::value
CONST	ENDS
;	COMDAT ?value@?$integral_constant@_N$00@tr1@std@@2_NB
CONST	SEGMENT
?value@?$integral_constant@_N$00@tr1@std@@2_NB DB 01H	; std::tr1::integral_constant<bool,1>::value
CONST	ENDS
;	COMDAT ?value@?$integral_constant@_N$0A@@tr1@std@@2_NB
CONST	SEGMENT
?value@?$integral_constant@_N$0A@@tr1@std@@2_NB DB 00H	; std::tr1::integral_constant<bool,0>::value
CONST	ENDS
PUBLIC	??_H@YGXPAXIHP6EPAX0@Z@Z			; `vector constructor iterator'
EXTRN	__RTC_CheckEsp:PROC
EXTRN	__RTC_Shutdown:PROC
EXTRN	__RTC_InitBase:PROC
;	COMDAT rtc$TMZ
rtc$TMZ	SEGMENT
__RTC_Shutdown.rtc$TMZ DD FLAT:__RTC_Shutdown
rtc$TMZ	ENDS
;	COMDAT rtc$IMZ
rtc$IMZ	SEGMENT
__RTC_InitBase.rtc$IMZ DD FLAT:__RTC_InitBase
; Function compile flags: /Odtp /RTCsu /ZI
rtc$IMZ	ENDS
;	COMDAT ??_H@YGXPAXIHP6EPAX0@Z@Z
_TEXT	SEGMENT
___t$ = 8						; size = 4
___s$ = 12						; size = 4
___n$ = 16						; size = 4
___f$ = 20						; size = 4
??_H@YGXPAXIHP6EPAX0@Z@Z PROC				; `vector constructor iterator', COMDAT
	push	ebp
	mov	ebp, esp
	sub	esp, 192				; 000000c0H
	push	ebx
	push	esi
	push	edi
	lea	edi, DWORD PTR [ebp-192]
	mov	ecx, 48					; 00000030H
	mov	eax, -858993460				; ccccccccH
	rep stosd
$LN2@vector:
	mov	eax, DWORD PTR ___n$[ebp]
	sub	eax, 1
	mov	DWORD PTR ___n$[ebp], eax
	js	SHORT $LN3@vector
	mov	esi, esp
	mov	ecx, DWORD PTR ___t$[ebp]
	call	DWORD PTR ___f$[ebp]
	cmp	esi, esp
	call	__RTC_CheckEsp
	mov	eax, DWORD PTR ___t$[ebp]
	add	eax, DWORD PTR ___s$[ebp]
	mov	DWORD PTR ___t$[ebp], eax
	jmp	SHORT $LN2@vector
$LN3@vector:
	pop	edi
	pop	esi
	pop	ebx
	add	esp, 192				; 000000c0H
	cmp	ebp, esp
	call	__RTC_CheckEsp
	mov	esp, ebp
	pop	ebp
	ret	16					; 00000010H
??_H@YGXPAXIHP6EPAX0@Z@Z ENDP				; `vector constructor iterator'
_TEXT	ENDS
PUBLIC	??1TestClass@@UAE@XZ				; TestClass::~TestClass
PUBLIC	?testIsPointInside@TestDetector@@QAEXXZ		; TestDetector::testIsPointInside
PUBLIC	??_7TestDetector@@6B@				; TestDetector::`vftable'
PUBLIC	??0TestClass@@QAE@XZ				; TestClass::TestClass
PUBLIC	??0TestDetector@@QAE@XZ				; TestDetector::TestDetector
PUBLIC	??_R4TestDetector@@6B@				; TestDetector::`RTTI Complete Object Locator'
PUBLIC	??_R0?AVTestDetector@@@8			; TestDetector `RTTI Type Descriptor'
PUBLIC	??_R3TestDetector@@8				; TestDetector::`RTTI Class Hierarchy Descriptor'
PUBLIC	??_R2TestDetector@@8				; TestDetector::`RTTI Base Class Array'
PUBLIC	??_R1A@?0A@EA@TestDetector@@8			; TestDetector::`RTTI Base Class Descriptor at (0,-1,0,64)'
PUBLIC	??_R1A@?0A@EA@TestClass@@8			; TestClass::`RTTI Base Class Descriptor at (0,-1,0,64)'
PUBLIC	??_R0?AVTestClass@@@8				; TestClass `RTTI Type Descriptor'
PUBLIC	??_R3TestClass@@8				; TestClass::`RTTI Class Hierarchy Descriptor'
PUBLIC	??_R2TestClass@@8				; TestClass::`RTTI Base Class Array'
EXTRN	___security_cookie:DWORD
EXTRN	___CxxFrameHandler3:PROC
EXTRN	@__security_check_cookie@4:PROC
EXTRN	??_7type_info@@6B@:QWORD			; type_info::`vftable'
EXTRN	??_ETestDetector@@UAEPAXI@Z:PROC		; TestDetector::`vector deleting destructor'
;	COMDAT ??_R2TestClass@@8
; File c:\users\tdrol\documents\visual studio 2010\projects\parking\detector\testdetector.cpp
rdata$r	SEGMENT
??_R2TestClass@@8 DD FLAT:??_R1A@?0A@EA@TestClass@@8	; TestClass::`RTTI Base Class Array'
rdata$r	ENDS
;	COMDAT ??_R3TestClass@@8
rdata$r	SEGMENT
??_R3TestClass@@8 DD 00H				; TestClass::`RTTI Class Hierarchy Descriptor'
	DD	00H
	DD	01H
	DD	FLAT:??_R2TestClass@@8
rdata$r	ENDS
;	COMDAT ??_R0?AVTestClass@@@8
_DATA	SEGMENT
??_R0?AVTestClass@@@8 DD FLAT:??_7type_info@@6B@	; TestClass `RTTI Type Descriptor'
	DD	00H
	DB	'.?AVTestClass@@', 00H
_DATA	ENDS
;	COMDAT ??_R1A@?0A@EA@TestClass@@8
rdata$r	SEGMENT
??_R1A@?0A@EA@TestClass@@8 DD FLAT:??_R0?AVTestClass@@@8 ; TestClass::`RTTI Base Class Descriptor at (0,-1,0,64)'
	DD	00H
	DD	00H
	DD	0ffffffffH
	DD	00H
	DD	040H
	DD	FLAT:??_R3TestClass@@8
rdata$r	ENDS
;	COMDAT ??_R1A@?0A@EA@TestDetector@@8
rdata$r	SEGMENT
??_R1A@?0A@EA@TestDetector@@8 DD FLAT:??_R0?AVTestDetector@@@8 ; TestDetector::`RTTI Base Class Descriptor at (0,-1,0,64)'
	DD	01H
	DD	00H
	DD	0ffffffffH
	DD	00H
	DD	040H
	DD	FLAT:??_R3TestDetector@@8
rdata$r	ENDS
;	COMDAT ??_R2TestDetector@@8
rdata$r	SEGMENT
??_R2TestDetector@@8 DD FLAT:??_R1A@?0A@EA@TestDetector@@8 ; TestDetector::`RTTI Base Class Array'
	DD	FLAT:??_R1A@?0A@EA@TestClass@@8
rdata$r	ENDS
;	COMDAT ??_R3TestDetector@@8
rdata$r	SEGMENT
??_R3TestDetector@@8 DD 00H				; TestDetector::`RTTI Class Hierarchy Descriptor'
	DD	00H
	DD	02H
	DD	FLAT:??_R2TestDetector@@8
rdata$r	ENDS
;	COMDAT ??_R0?AVTestDetector@@@8
_DATA	SEGMENT
??_R0?AVTestDetector@@@8 DD FLAT:??_7type_info@@6B@	; TestDetector `RTTI Type Descriptor'
	DD	00H
	DB	'.?AVTestDetector@@', 00H
_DATA	ENDS
;	COMDAT ??_R4TestDetector@@6B@
rdata$r	SEGMENT
??_R4TestDetector@@6B@ DD 00H				; TestDetector::`RTTI Complete Object Locator'
	DD	00H
	DD	00H
	DD	FLAT:??_R0?AVTestDetector@@@8
	DD	FLAT:??_R3TestDetector@@8
rdata$r	ENDS
;	COMDAT ??_7TestDetector@@6B@
CONST	SEGMENT
??_7TestDetector@@6B@ DD FLAT:??_R4TestDetector@@6B@	; TestDetector::`vftable'
	DD	FLAT:??_ETestDetector@@UAEPAXI@Z
CONST	ENDS
;	COMDAT xdata$x
xdata$x	SEGMENT
__unwindtable$??0TestDetector@@QAE@XZ DD 0ffffffffH
	DD	FLAT:__unwindfunclet$??0TestDetector@@QAE@XZ$0
__ehfuncinfo$??0TestDetector@@QAE@XZ DD 019930522H
	DD	01H
	DD	FLAT:__unwindtable$??0TestDetector@@QAE@XZ
	DD	2 DUP(00H)
	DD	2 DUP(00H)
	DD	00H
	DD	01H
; Function compile flags: /Odtp /RTCsu /ZI
xdata$x	ENDS
;	COMDAT ??0TestDetector@@QAE@XZ
_TEXT	SEGMENT
_this$ = -20						; size = 4
__$EHRec$ = -12						; size = 12
??0TestDetector@@QAE@XZ PROC				; TestDetector::TestDetector, COMDAT
; _this$ = ecx

; 6    : {

	push	ebp
	mov	ebp, esp
	push	-1
	push	__ehhandler$??0TestDetector@@QAE@XZ
	mov	eax, DWORD PTR fs:0
	push	eax
	sub	esp, 204				; 000000ccH
	push	ebx
	push	esi
	push	edi
	push	ecx
	lea	edi, DWORD PTR [ebp-216]
	mov	ecx, 51					; 00000033H
	mov	eax, -858993460				; ccccccccH
	rep stosd
	pop	ecx
	mov	eax, DWORD PTR ___security_cookie
	xor	eax, ebp
	push	eax
	lea	eax, DWORD PTR __$EHRec$[ebp]
	mov	DWORD PTR fs:0, eax
	mov	DWORD PTR _this$[ebp], ecx
	mov	ecx, DWORD PTR _this$[ebp]
	call	??0TestClass@@QAE@XZ
	mov	DWORD PTR __$EHRec$[ebp+8], 0
	mov	eax, DWORD PTR _this$[ebp]
	mov	DWORD PTR [eax], OFFSET ??_7TestDetector@@6B@

; 7    : 	testIsPointInside();

	mov	ecx, DWORD PTR _this$[ebp]
	call	?testIsPointInside@TestDetector@@QAEXXZ	; TestDetector::testIsPointInside

; 8    : }

	mov	DWORD PTR __$EHRec$[ebp+8], -1
	mov	eax, DWORD PTR _this$[ebp]
	mov	ecx, DWORD PTR __$EHRec$[ebp]
	mov	DWORD PTR fs:0, ecx
	pop	ecx
	pop	edi
	pop	esi
	pop	ebx
	add	esp, 216				; 000000d8H
	cmp	ebp, esp
	call	__RTC_CheckEsp
	mov	esp, ebp
	pop	ebp
	ret	0
_TEXT	ENDS
;	COMDAT text$x
text$x	SEGMENT
__unwindfunclet$??0TestDetector@@QAE@XZ$0:
	mov	ecx, DWORD PTR _this$[ebp]
	jmp	??1TestClass@@UAE@XZ			; TestClass::~TestClass
__ehhandler$??0TestDetector@@QAE@XZ:
	mov	edx, DWORD PTR [esp+8]
	lea	eax, DWORD PTR [edx+12]
	mov	ecx, DWORD PTR [edx-220]
	xor	ecx, eax
	call	@__security_check_cookie@4
	mov	eax, OFFSET __ehfuncinfo$??0TestDetector@@QAE@XZ
	jmp	___CxxFrameHandler3
text$x	ENDS
??0TestDetector@@QAE@XZ ENDP				; TestDetector::TestDetector
PUBLIC	??_7TestClass@@6B@				; TestClass::`vftable'
PUBLIC	??_R4TestClass@@6B@				; TestClass::`RTTI Complete Object Locator'
EXTRN	??_ETestClass@@UAEPAXI@Z:PROC			; TestClass::`vector deleting destructor'
;	COMDAT ??_R4TestClass@@6B@
; File c:\users\tdrol\documents\visual studio 2010\projects\parking\detector\testclass.h
rdata$r	SEGMENT
??_R4TestClass@@6B@ DD 00H				; TestClass::`RTTI Complete Object Locator'
	DD	00H
	DD	00H
	DD	FLAT:??_R0?AVTestClass@@@8
	DD	FLAT:??_R3TestClass@@8
rdata$r	ENDS
;	COMDAT ??_7TestClass@@6B@
CONST	SEGMENT
??_7TestClass@@6B@ DD FLAT:??_R4TestClass@@6B@		; TestClass::`vftable'
	DD	FLAT:??_ETestClass@@UAEPAXI@Z
; Function compile flags: /Odtp /RTCsu /ZI
CONST	ENDS
;	COMDAT ??1TestClass@@UAE@XZ
_TEXT	SEGMENT
_this$ = -8						; size = 4
??1TestClass@@UAE@XZ PROC				; TestClass::~TestClass, COMDAT
; _this$ = ecx

; 14   : 	virtual ~TestClass() {}

	push	ebp
	mov	ebp, esp
	sub	esp, 204				; 000000ccH
	push	ebx
	push	esi
	push	edi
	push	ecx
	lea	edi, DWORD PTR [ebp-204]
	mov	ecx, 51					; 00000033H
	mov	eax, -858993460				; ccccccccH
	rep stosd
	pop	ecx
	mov	DWORD PTR _this$[ebp], ecx
	mov	eax, DWORD PTR _this$[ebp]
	mov	DWORD PTR [eax], OFFSET ??_7TestClass@@6B@
	pop	edi
	pop	esi
	pop	ebx
	mov	esp, ebp
	pop	ebp
	ret	0
??1TestClass@@UAE@XZ ENDP				; TestClass::~TestClass
_TEXT	ENDS
EXTRN	??3@YAXPAX@Z:PROC				; operator delete
; Function compile flags: /Odtp /RTCsu /ZI
;	COMDAT ??_GTestClass@@UAEPAXI@Z
_TEXT	SEGMENT
_this$ = -8						; size = 4
___flags$ = 8						; size = 4
??_GTestClass@@UAEPAXI@Z PROC				; TestClass::`scalar deleting destructor', COMDAT
; _this$ = ecx
	push	ebp
	mov	ebp, esp
	sub	esp, 204				; 000000ccH
	push	ebx
	push	esi
	push	edi
	push	ecx
	lea	edi, DWORD PTR [ebp-204]
	mov	ecx, 51					; 00000033H
	mov	eax, -858993460				; ccccccccH
	rep stosd
	pop	ecx
	mov	DWORD PTR _this$[ebp], ecx
	mov	ecx, DWORD PTR _this$[ebp]
	call	??1TestClass@@UAE@XZ			; TestClass::~TestClass
	mov	eax, DWORD PTR ___flags$[ebp]
	and	eax, 1
	je	SHORT $LN1@scalar
	mov	eax, DWORD PTR _this$[ebp]
	push	eax
	call	??3@YAXPAX@Z				; operator delete
	add	esp, 4
$LN1@scalar:
	mov	eax, DWORD PTR _this$[ebp]
	pop	edi
	pop	esi
	pop	ebx
	add	esp, 204				; 000000ccH
	cmp	ebp, esp
	call	__RTC_CheckEsp
	mov	esp, ebp
	pop	ebp
	ret	4
??_GTestClass@@UAEPAXI@Z ENDP				; TestClass::`scalar deleting destructor'
_TEXT	ENDS
PUBLIC	??1TestDetector@@UAE@XZ				; TestDetector::~TestDetector
; Function compile flags: /Odtp /RTCsu /ZI
;	COMDAT ??_GTestDetector@@UAEPAXI@Z
_TEXT	SEGMENT
_this$ = -8						; size = 4
___flags$ = 8						; size = 4
??_GTestDetector@@UAEPAXI@Z PROC			; TestDetector::`scalar deleting destructor', COMDAT
; _this$ = ecx
	push	ebp
	mov	ebp, esp
	sub	esp, 204				; 000000ccH
	push	ebx
	push	esi
	push	edi
	push	ecx
	lea	edi, DWORD PTR [ebp-204]
	mov	ecx, 51					; 00000033H
	mov	eax, -858993460				; ccccccccH
	rep stosd
	pop	ecx
	mov	DWORD PTR _this$[ebp], ecx
	mov	ecx, DWORD PTR _this$[ebp]
	call	??1TestDetector@@UAE@XZ
	mov	eax, DWORD PTR ___flags$[ebp]
	and	eax, 1
	je	SHORT $LN1@scalar@2
	mov	eax, DWORD PTR _this$[ebp]
	push	eax
	call	??3@YAXPAX@Z				; operator delete
	add	esp, 4
$LN1@scalar@2:
	mov	eax, DWORD PTR _this$[ebp]
	pop	edi
	pop	esi
	pop	ebx
	add	esp, 204				; 000000ccH
	cmp	ebp, esp
	call	__RTC_CheckEsp
	mov	esp, ebp
	pop	ebp
	ret	4
??_GTestDetector@@UAEPAXI@Z ENDP			; TestDetector::`scalar deleting destructor'
; Function compile flags: /Odtp /RTCsu /ZI
_TEXT	ENDS
;	COMDAT ??0TestClass@@QAE@XZ
_TEXT	SEGMENT
_this$ = -8						; size = 4
??0TestClass@@QAE@XZ PROC				; TestClass::TestClass, COMDAT
; _this$ = ecx
	push	ebp
	mov	ebp, esp
	sub	esp, 204				; 000000ccH
	push	ebx
	push	esi
	push	edi
	push	ecx
	lea	edi, DWORD PTR [ebp-204]
	mov	ecx, 51					; 00000033H
	mov	eax, -858993460				; ccccccccH
	rep stosd
	pop	ecx
	mov	DWORD PTR _this$[ebp], ecx
	mov	eax, DWORD PTR _this$[ebp]
	mov	DWORD PTR [eax], OFFSET ??_7TestClass@@6B@
	mov	eax, DWORD PTR _this$[ebp]
	pop	edi
	pop	esi
	pop	ebx
	mov	esp, ebp
	pop	ebp
	ret	0
??0TestClass@@QAE@XZ ENDP				; TestClass::TestClass
; Function compile flags: /Odtp /RTCsu /ZI
_TEXT	ENDS
;	COMDAT ??1TestDetector@@UAE@XZ
_TEXT	SEGMENT
_this$ = -8						; size = 4
??1TestDetector@@UAE@XZ PROC				; TestDetector::~TestDetector, COMDAT
; _this$ = ecx
	push	ebp
	mov	ebp, esp
	sub	esp, 204				; 000000ccH
	push	ebx
	push	esi
	push	edi
	push	ecx
	lea	edi, DWORD PTR [ebp-204]
	mov	ecx, 51					; 00000033H
	mov	eax, -858993460				; ccccccccH
	rep stosd
	pop	ecx
	mov	DWORD PTR _this$[ebp], ecx
	mov	ecx, DWORD PTR _this$[ebp]
	call	??1TestClass@@UAE@XZ			; TestClass::~TestClass
	pop	edi
	pop	esi
	pop	ebx
	add	esp, 204				; 000000ccH
	cmp	ebp, esp
	call	__RTC_CheckEsp
	mov	esp, ebp
	pop	ebp
	ret	0
??1TestDetector@@UAE@XZ ENDP				; TestDetector::~TestDetector
; Function compile flags: /Odtp /RTCsu /ZI
; File c:\users\tdrol\documents\visual studio 2010\projects\parking\detector\testdetector.cpp
_TEXT	ENDS
;	COMDAT ?testIsPointInside@TestDetector@@QAEXXZ
_TEXT	SEGMENT
_this$ = -8						; size = 4
?testIsPointInside@TestDetector@@QAEXXZ PROC		; TestDetector::testIsPointInside, COMDAT
; _this$ = ecx

; 11   : {

	push	ebp
	mov	ebp, esp
	sub	esp, 204				; 000000ccH
	push	ebx
	push	esi
	push	edi
	push	ecx
	lea	edi, DWORD PTR [ebp-204]
	mov	ecx, 51					; 00000033H
	mov	eax, -858993460				; ccccccccH
	rep stosd
	pop	ecx
	mov	DWORD PTR _this$[ebp], ecx

; 12   : 
; 13   : }

	pop	edi
	pop	esi
	pop	ebx
	mov	esp, ebp
	pop	ebp
	ret	0
?testIsPointInside@TestDetector@@QAEXXZ ENDP		; TestDetector::testIsPointInside
_TEXT	ENDS
END
