; Listing generated by Microsoft (R) Optimizing Compiler Version 16.00.30319.01 

	TITLE	C:\Users\tdrol\documents\visual studio 2010\Projects\parking\detector\TestCameraDriver.cpp
	.686P
	.XMM
	include listing.inc
	.model	flat

INCLUDELIB MSVCRTD
INCLUDELIB OLDNAMES

PUBLIC	?value@?$integral_constant@_N$0A@@tr1@std@@2_NB	; std::tr1::integral_constant<bool,0>::value
PUBLIC	?value@?$integral_constant@_N$00@tr1@std@@2_NB	; std::tr1::integral_constant<bool,1>::value
PUBLIC	?value@?$integral_constant@I$0A@@tr1@std@@2IB	; std::tr1::integral_constant<unsigned int,0>::value
PUBLIC	?_Rank@?$_Arithmetic_traits@_N@std@@2HB		; std::_Arithmetic_traits<bool>::_Rank
PUBLIC	?_Rank@?$_Arithmetic_traits@D@std@@2HB		; std::_Arithmetic_traits<char>::_Rank
PUBLIC	?_Rank@?$_Arithmetic_traits@C@std@@2HB		; std::_Arithmetic_traits<signed char>::_Rank
PUBLIC	?_Rank@?$_Arithmetic_traits@E@std@@2HB		; std::_Arithmetic_traits<unsigned char>::_Rank
PUBLIC	?_Rank@?$_Arithmetic_traits@F@std@@2HB		; std::_Arithmetic_traits<short>::_Rank
PUBLIC	?_Rank@?$_Arithmetic_traits@G@std@@2HB		; std::_Arithmetic_traits<unsigned short>::_Rank
PUBLIC	?_Rank@?$_Arithmetic_traits@H@std@@2HB		; std::_Arithmetic_traits<int>::_Rank
PUBLIC	?_Rank@?$_Arithmetic_traits@I@std@@2HB		; std::_Arithmetic_traits<unsigned int>::_Rank
PUBLIC	?_Rank@?$_Arithmetic_traits@J@std@@2HB		; std::_Arithmetic_traits<long>::_Rank
PUBLIC	?_Rank@?$_Arithmetic_traits@K@std@@2HB		; std::_Arithmetic_traits<unsigned long>::_Rank
PUBLIC	?_Rank@?$_Arithmetic_traits@_J@std@@2HB		; std::_Arithmetic_traits<__int64>::_Rank
PUBLIC	?_Rank@?$_Arithmetic_traits@_K@std@@2HB		; std::_Arithmetic_traits<unsigned __int64>::_Rank
PUBLIC	?_Rank@?$_Arithmetic_traits@M@std@@2HB		; std::_Arithmetic_traits<float>::_Rank
PUBLIC	?_Rank@?$_Arithmetic_traits@N@std@@2HB		; std::_Arithmetic_traits<double>::_Rank
PUBLIC	?_Rank@?$_Arithmetic_traits@O@std@@2HB		; std::_Arithmetic_traits<long double>::_Rank
PUBLIC	?collate@?$_Locbase@H@std@@2HB			; std::_Locbase<int>::collate
PUBLIC	?ctype@?$_Locbase@H@std@@2HB			; std::_Locbase<int>::ctype
PUBLIC	?monetary@?$_Locbase@H@std@@2HB			; std::_Locbase<int>::monetary
PUBLIC	?numeric@?$_Locbase@H@std@@2HB			; std::_Locbase<int>::numeric
PUBLIC	?time@?$_Locbase@H@std@@2HB			; std::_Locbase<int>::time
PUBLIC	?messages@?$_Locbase@H@std@@2HB			; std::_Locbase<int>::messages
PUBLIC	?all@?$_Locbase@H@std@@2HB			; std::_Locbase<int>::all
PUBLIC	?none@?$_Locbase@H@std@@2HB			; std::_Locbase<int>::none
PUBLIC	?skipws@?$_Iosb@H@std@@2W4_Fmtflags@12@B	; std::_Iosb<int>::skipws
PUBLIC	?unitbuf@?$_Iosb@H@std@@2W4_Fmtflags@12@B	; std::_Iosb<int>::unitbuf
PUBLIC	?uppercase@?$_Iosb@H@std@@2W4_Fmtflags@12@B	; std::_Iosb<int>::uppercase
PUBLIC	?showbase@?$_Iosb@H@std@@2W4_Fmtflags@12@B	; std::_Iosb<int>::showbase
PUBLIC	?showpoint@?$_Iosb@H@std@@2W4_Fmtflags@12@B	; std::_Iosb<int>::showpoint
PUBLIC	?showpos@?$_Iosb@H@std@@2W4_Fmtflags@12@B	; std::_Iosb<int>::showpos
PUBLIC	?left@?$_Iosb@H@std@@2W4_Fmtflags@12@B		; std::_Iosb<int>::left
PUBLIC	?right@?$_Iosb@H@std@@2W4_Fmtflags@12@B		; std::_Iosb<int>::right
PUBLIC	?internal@?$_Iosb@H@std@@2W4_Fmtflags@12@B	; std::_Iosb<int>::internal
PUBLIC	?dec@?$_Iosb@H@std@@2W4_Fmtflags@12@B		; std::_Iosb<int>::dec
PUBLIC	?oct@?$_Iosb@H@std@@2W4_Fmtflags@12@B		; std::_Iosb<int>::oct
PUBLIC	?hex@?$_Iosb@H@std@@2W4_Fmtflags@12@B		; std::_Iosb<int>::hex
PUBLIC	?scientific@?$_Iosb@H@std@@2W4_Fmtflags@12@B	; std::_Iosb<int>::scientific
PUBLIC	?fixed@?$_Iosb@H@std@@2W4_Fmtflags@12@B		; std::_Iosb<int>::fixed
PUBLIC	?hexfloat@?$_Iosb@H@std@@2W4_Fmtflags@12@B	; std::_Iosb<int>::hexfloat
PUBLIC	?boolalpha@?$_Iosb@H@std@@2W4_Fmtflags@12@B	; std::_Iosb<int>::boolalpha
PUBLIC	?_Stdio@?$_Iosb@H@std@@2W4_Fmtflags@12@B	; std::_Iosb<int>::_Stdio
PUBLIC	?adjustfield@?$_Iosb@H@std@@2W4_Fmtflags@12@B	; std::_Iosb<int>::adjustfield
PUBLIC	?basefield@?$_Iosb@H@std@@2W4_Fmtflags@12@B	; std::_Iosb<int>::basefield
PUBLIC	?floatfield@?$_Iosb@H@std@@2W4_Fmtflags@12@B	; std::_Iosb<int>::floatfield
PUBLIC	?goodbit@?$_Iosb@H@std@@2W4_Iostate@12@B	; std::_Iosb<int>::goodbit
PUBLIC	?eofbit@?$_Iosb@H@std@@2W4_Iostate@12@B		; std::_Iosb<int>::eofbit
PUBLIC	?failbit@?$_Iosb@H@std@@2W4_Iostate@12@B	; std::_Iosb<int>::failbit
PUBLIC	?badbit@?$_Iosb@H@std@@2W4_Iostate@12@B		; std::_Iosb<int>::badbit
PUBLIC	?_Hardfail@?$_Iosb@H@std@@2W4_Iostate@12@B	; std::_Iosb<int>::_Hardfail
PUBLIC	?in@?$_Iosb@H@std@@2W4_Openmode@12@B		; std::_Iosb<int>::in
PUBLIC	?out@?$_Iosb@H@std@@2W4_Openmode@12@B		; std::_Iosb<int>::out
PUBLIC	?ate@?$_Iosb@H@std@@2W4_Openmode@12@B		; std::_Iosb<int>::ate
PUBLIC	?app@?$_Iosb@H@std@@2W4_Openmode@12@B		; std::_Iosb<int>::app
PUBLIC	?trunc@?$_Iosb@H@std@@2W4_Openmode@12@B		; std::_Iosb<int>::trunc
PUBLIC	?_Nocreate@?$_Iosb@H@std@@2W4_Openmode@12@B	; std::_Iosb<int>::_Nocreate
PUBLIC	?_Noreplace@?$_Iosb@H@std@@2W4_Openmode@12@B	; std::_Iosb<int>::_Noreplace
PUBLIC	?binary@?$_Iosb@H@std@@2W4_Openmode@12@B	; std::_Iosb<int>::binary
PUBLIC	?beg@?$_Iosb@H@std@@2W4_Seekdir@12@B		; std::_Iosb<int>::beg
PUBLIC	?cur@?$_Iosb@H@std@@2W4_Seekdir@12@B		; std::_Iosb<int>::cur
PUBLIC	?end@?$_Iosb@H@std@@2W4_Seekdir@12@B		; std::_Iosb<int>::end
;	COMDAT ?end@?$_Iosb@H@std@@2W4_Seekdir@12@B
CONST	SEGMENT
?end@?$_Iosb@H@std@@2W4_Seekdir@12@B DD 02H		; std::_Iosb<int>::end
CONST	ENDS
;	COMDAT ?cur@?$_Iosb@H@std@@2W4_Seekdir@12@B
CONST	SEGMENT
?cur@?$_Iosb@H@std@@2W4_Seekdir@12@B DD 01H		; std::_Iosb<int>::cur
CONST	ENDS
;	COMDAT ?beg@?$_Iosb@H@std@@2W4_Seekdir@12@B
CONST	SEGMENT
?beg@?$_Iosb@H@std@@2W4_Seekdir@12@B DD 00H		; std::_Iosb<int>::beg
CONST	ENDS
;	COMDAT ?binary@?$_Iosb@H@std@@2W4_Openmode@12@B
CONST	SEGMENT
?binary@?$_Iosb@H@std@@2W4_Openmode@12@B DD 020H	; std::_Iosb<int>::binary
CONST	ENDS
;	COMDAT ?_Noreplace@?$_Iosb@H@std@@2W4_Openmode@12@B
CONST	SEGMENT
?_Noreplace@?$_Iosb@H@std@@2W4_Openmode@12@B DD 080H	; std::_Iosb<int>::_Noreplace
CONST	ENDS
;	COMDAT ?_Nocreate@?$_Iosb@H@std@@2W4_Openmode@12@B
CONST	SEGMENT
?_Nocreate@?$_Iosb@H@std@@2W4_Openmode@12@B DD 040H	; std::_Iosb<int>::_Nocreate
CONST	ENDS
;	COMDAT ?trunc@?$_Iosb@H@std@@2W4_Openmode@12@B
CONST	SEGMENT
?trunc@?$_Iosb@H@std@@2W4_Openmode@12@B DD 010H		; std::_Iosb<int>::trunc
CONST	ENDS
;	COMDAT ?app@?$_Iosb@H@std@@2W4_Openmode@12@B
CONST	SEGMENT
?app@?$_Iosb@H@std@@2W4_Openmode@12@B DD 08H		; std::_Iosb<int>::app
CONST	ENDS
;	COMDAT ?ate@?$_Iosb@H@std@@2W4_Openmode@12@B
CONST	SEGMENT
?ate@?$_Iosb@H@std@@2W4_Openmode@12@B DD 04H		; std::_Iosb<int>::ate
CONST	ENDS
;	COMDAT ?out@?$_Iosb@H@std@@2W4_Openmode@12@B
CONST	SEGMENT
?out@?$_Iosb@H@std@@2W4_Openmode@12@B DD 02H		; std::_Iosb<int>::out
CONST	ENDS
;	COMDAT ?in@?$_Iosb@H@std@@2W4_Openmode@12@B
CONST	SEGMENT
?in@?$_Iosb@H@std@@2W4_Openmode@12@B DD 01H		; std::_Iosb<int>::in
CONST	ENDS
;	COMDAT ?_Hardfail@?$_Iosb@H@std@@2W4_Iostate@12@B
CONST	SEGMENT
?_Hardfail@?$_Iosb@H@std@@2W4_Iostate@12@B DD 010H	; std::_Iosb<int>::_Hardfail
CONST	ENDS
;	COMDAT ?badbit@?$_Iosb@H@std@@2W4_Iostate@12@B
CONST	SEGMENT
?badbit@?$_Iosb@H@std@@2W4_Iostate@12@B DD 04H		; std::_Iosb<int>::badbit
CONST	ENDS
;	COMDAT ?failbit@?$_Iosb@H@std@@2W4_Iostate@12@B
CONST	SEGMENT
?failbit@?$_Iosb@H@std@@2W4_Iostate@12@B DD 02H		; std::_Iosb<int>::failbit
CONST	ENDS
;	COMDAT ?eofbit@?$_Iosb@H@std@@2W4_Iostate@12@B
CONST	SEGMENT
?eofbit@?$_Iosb@H@std@@2W4_Iostate@12@B DD 01H		; std::_Iosb<int>::eofbit
CONST	ENDS
;	COMDAT ?goodbit@?$_Iosb@H@std@@2W4_Iostate@12@B
CONST	SEGMENT
?goodbit@?$_Iosb@H@std@@2W4_Iostate@12@B DD 00H		; std::_Iosb<int>::goodbit
CONST	ENDS
;	COMDAT ?floatfield@?$_Iosb@H@std@@2W4_Fmtflags@12@B
CONST	SEGMENT
?floatfield@?$_Iosb@H@std@@2W4_Fmtflags@12@B DD 03000H	; std::_Iosb<int>::floatfield
CONST	ENDS
;	COMDAT ?basefield@?$_Iosb@H@std@@2W4_Fmtflags@12@B
CONST	SEGMENT
?basefield@?$_Iosb@H@std@@2W4_Fmtflags@12@B DD 0e00H	; std::_Iosb<int>::basefield
CONST	ENDS
;	COMDAT ?adjustfield@?$_Iosb@H@std@@2W4_Fmtflags@12@B
CONST	SEGMENT
?adjustfield@?$_Iosb@H@std@@2W4_Fmtflags@12@B DD 01c0H	; std::_Iosb<int>::adjustfield
CONST	ENDS
;	COMDAT ?_Stdio@?$_Iosb@H@std@@2W4_Fmtflags@12@B
CONST	SEGMENT
?_Stdio@?$_Iosb@H@std@@2W4_Fmtflags@12@B DD 08000H	; std::_Iosb<int>::_Stdio
CONST	ENDS
;	COMDAT ?boolalpha@?$_Iosb@H@std@@2W4_Fmtflags@12@B
CONST	SEGMENT
?boolalpha@?$_Iosb@H@std@@2W4_Fmtflags@12@B DD 04000H	; std::_Iosb<int>::boolalpha
CONST	ENDS
;	COMDAT ?hexfloat@?$_Iosb@H@std@@2W4_Fmtflags@12@B
CONST	SEGMENT
?hexfloat@?$_Iosb@H@std@@2W4_Fmtflags@12@B DD 03000H	; std::_Iosb<int>::hexfloat
CONST	ENDS
;	COMDAT ?fixed@?$_Iosb@H@std@@2W4_Fmtflags@12@B
CONST	SEGMENT
?fixed@?$_Iosb@H@std@@2W4_Fmtflags@12@B DD 02000H	; std::_Iosb<int>::fixed
CONST	ENDS
;	COMDAT ?scientific@?$_Iosb@H@std@@2W4_Fmtflags@12@B
CONST	SEGMENT
?scientific@?$_Iosb@H@std@@2W4_Fmtflags@12@B DD 01000H	; std::_Iosb<int>::scientific
CONST	ENDS
;	COMDAT ?hex@?$_Iosb@H@std@@2W4_Fmtflags@12@B
CONST	SEGMENT
?hex@?$_Iosb@H@std@@2W4_Fmtflags@12@B DD 0800H		; std::_Iosb<int>::hex
CONST	ENDS
;	COMDAT ?oct@?$_Iosb@H@std@@2W4_Fmtflags@12@B
CONST	SEGMENT
?oct@?$_Iosb@H@std@@2W4_Fmtflags@12@B DD 0400H		; std::_Iosb<int>::oct
CONST	ENDS
;	COMDAT ?dec@?$_Iosb@H@std@@2W4_Fmtflags@12@B
CONST	SEGMENT
?dec@?$_Iosb@H@std@@2W4_Fmtflags@12@B DD 0200H		; std::_Iosb<int>::dec
CONST	ENDS
;	COMDAT ?internal@?$_Iosb@H@std@@2W4_Fmtflags@12@B
CONST	SEGMENT
?internal@?$_Iosb@H@std@@2W4_Fmtflags@12@B DD 0100H	; std::_Iosb<int>::internal
CONST	ENDS
;	COMDAT ?right@?$_Iosb@H@std@@2W4_Fmtflags@12@B
CONST	SEGMENT
?right@?$_Iosb@H@std@@2W4_Fmtflags@12@B DD 080H		; std::_Iosb<int>::right
CONST	ENDS
;	COMDAT ?left@?$_Iosb@H@std@@2W4_Fmtflags@12@B
CONST	SEGMENT
?left@?$_Iosb@H@std@@2W4_Fmtflags@12@B DD 040H		; std::_Iosb<int>::left
CONST	ENDS
;	COMDAT ?showpos@?$_Iosb@H@std@@2W4_Fmtflags@12@B
CONST	SEGMENT
?showpos@?$_Iosb@H@std@@2W4_Fmtflags@12@B DD 020H	; std::_Iosb<int>::showpos
CONST	ENDS
;	COMDAT ?showpoint@?$_Iosb@H@std@@2W4_Fmtflags@12@B
CONST	SEGMENT
?showpoint@?$_Iosb@H@std@@2W4_Fmtflags@12@B DD 010H	; std::_Iosb<int>::showpoint
CONST	ENDS
;	COMDAT ?showbase@?$_Iosb@H@std@@2W4_Fmtflags@12@B
CONST	SEGMENT
?showbase@?$_Iosb@H@std@@2W4_Fmtflags@12@B DD 08H	; std::_Iosb<int>::showbase
CONST	ENDS
;	COMDAT ?uppercase@?$_Iosb@H@std@@2W4_Fmtflags@12@B
CONST	SEGMENT
?uppercase@?$_Iosb@H@std@@2W4_Fmtflags@12@B DD 04H	; std::_Iosb<int>::uppercase
CONST	ENDS
;	COMDAT ?unitbuf@?$_Iosb@H@std@@2W4_Fmtflags@12@B
CONST	SEGMENT
?unitbuf@?$_Iosb@H@std@@2W4_Fmtflags@12@B DD 02H	; std::_Iosb<int>::unitbuf
CONST	ENDS
;	COMDAT ?skipws@?$_Iosb@H@std@@2W4_Fmtflags@12@B
CONST	SEGMENT
?skipws@?$_Iosb@H@std@@2W4_Fmtflags@12@B DD 01H		; std::_Iosb<int>::skipws
CONST	ENDS
;	COMDAT ?none@?$_Locbase@H@std@@2HB
CONST	SEGMENT
?none@?$_Locbase@H@std@@2HB DD 00H			; std::_Locbase<int>::none
CONST	ENDS
;	COMDAT ?all@?$_Locbase@H@std@@2HB
CONST	SEGMENT
?all@?$_Locbase@H@std@@2HB DD 03fH			; std::_Locbase<int>::all
CONST	ENDS
;	COMDAT ?messages@?$_Locbase@H@std@@2HB
CONST	SEGMENT
?messages@?$_Locbase@H@std@@2HB DD 020H			; std::_Locbase<int>::messages
CONST	ENDS
;	COMDAT ?time@?$_Locbase@H@std@@2HB
CONST	SEGMENT
?time@?$_Locbase@H@std@@2HB DD 010H			; std::_Locbase<int>::time
CONST	ENDS
;	COMDAT ?numeric@?$_Locbase@H@std@@2HB
CONST	SEGMENT
?numeric@?$_Locbase@H@std@@2HB DD 08H			; std::_Locbase<int>::numeric
CONST	ENDS
;	COMDAT ?monetary@?$_Locbase@H@std@@2HB
CONST	SEGMENT
?monetary@?$_Locbase@H@std@@2HB DD 04H			; std::_Locbase<int>::monetary
CONST	ENDS
;	COMDAT ?ctype@?$_Locbase@H@std@@2HB
CONST	SEGMENT
?ctype@?$_Locbase@H@std@@2HB DD 02H			; std::_Locbase<int>::ctype
CONST	ENDS
;	COMDAT ?collate@?$_Locbase@H@std@@2HB
CONST	SEGMENT
?collate@?$_Locbase@H@std@@2HB DD 01H			; std::_Locbase<int>::collate
CONST	ENDS
;	COMDAT ?_Rank@?$_Arithmetic_traits@O@std@@2HB
CONST	SEGMENT
?_Rank@?$_Arithmetic_traits@O@std@@2HB DD 09H		; std::_Arithmetic_traits<long double>::_Rank
CONST	ENDS
;	COMDAT ?_Rank@?$_Arithmetic_traits@N@std@@2HB
CONST	SEGMENT
?_Rank@?$_Arithmetic_traits@N@std@@2HB DD 08H		; std::_Arithmetic_traits<double>::_Rank
CONST	ENDS
;	COMDAT ?_Rank@?$_Arithmetic_traits@M@std@@2HB
CONST	SEGMENT
?_Rank@?$_Arithmetic_traits@M@std@@2HB DD 07H		; std::_Arithmetic_traits<float>::_Rank
CONST	ENDS
;	COMDAT ?_Rank@?$_Arithmetic_traits@_K@std@@2HB
CONST	SEGMENT
?_Rank@?$_Arithmetic_traits@_K@std@@2HB DD 06H		; std::_Arithmetic_traits<unsigned __int64>::_Rank
CONST	ENDS
;	COMDAT ?_Rank@?$_Arithmetic_traits@_J@std@@2HB
CONST	SEGMENT
?_Rank@?$_Arithmetic_traits@_J@std@@2HB DD 06H		; std::_Arithmetic_traits<__int64>::_Rank
CONST	ENDS
;	COMDAT ?_Rank@?$_Arithmetic_traits@K@std@@2HB
CONST	SEGMENT
?_Rank@?$_Arithmetic_traits@K@std@@2HB DD 05H		; std::_Arithmetic_traits<unsigned long>::_Rank
CONST	ENDS
;	COMDAT ?_Rank@?$_Arithmetic_traits@J@std@@2HB
CONST	SEGMENT
?_Rank@?$_Arithmetic_traits@J@std@@2HB DD 05H		; std::_Arithmetic_traits<long>::_Rank
CONST	ENDS
;	COMDAT ?_Rank@?$_Arithmetic_traits@I@std@@2HB
CONST	SEGMENT
?_Rank@?$_Arithmetic_traits@I@std@@2HB DD 04H		; std::_Arithmetic_traits<unsigned int>::_Rank
CONST	ENDS
;	COMDAT ?_Rank@?$_Arithmetic_traits@H@std@@2HB
CONST	SEGMENT
?_Rank@?$_Arithmetic_traits@H@std@@2HB DD 04H		; std::_Arithmetic_traits<int>::_Rank
CONST	ENDS
;	COMDAT ?_Rank@?$_Arithmetic_traits@G@std@@2HB
CONST	SEGMENT
?_Rank@?$_Arithmetic_traits@G@std@@2HB DD 03H		; std::_Arithmetic_traits<unsigned short>::_Rank
CONST	ENDS
;	COMDAT ?_Rank@?$_Arithmetic_traits@F@std@@2HB
CONST	SEGMENT
?_Rank@?$_Arithmetic_traits@F@std@@2HB DD 03H		; std::_Arithmetic_traits<short>::_Rank
CONST	ENDS
;	COMDAT ?_Rank@?$_Arithmetic_traits@E@std@@2HB
CONST	SEGMENT
?_Rank@?$_Arithmetic_traits@E@std@@2HB DD 02H		; std::_Arithmetic_traits<unsigned char>::_Rank
CONST	ENDS
;	COMDAT ?_Rank@?$_Arithmetic_traits@C@std@@2HB
CONST	SEGMENT
?_Rank@?$_Arithmetic_traits@C@std@@2HB DD 02H		; std::_Arithmetic_traits<signed char>::_Rank
CONST	ENDS
;	COMDAT ?_Rank@?$_Arithmetic_traits@D@std@@2HB
CONST	SEGMENT
?_Rank@?$_Arithmetic_traits@D@std@@2HB DD 02H		; std::_Arithmetic_traits<char>::_Rank
CONST	ENDS
;	COMDAT ?_Rank@?$_Arithmetic_traits@_N@std@@2HB
CONST	SEGMENT
?_Rank@?$_Arithmetic_traits@_N@std@@2HB DD 01H		; std::_Arithmetic_traits<bool>::_Rank
CONST	ENDS
;	COMDAT ?value@?$integral_constant@I$0A@@tr1@std@@2IB
CONST	SEGMENT
?value@?$integral_constant@I$0A@@tr1@std@@2IB DD 00H	; std::tr1::integral_constant<unsigned int,0>::value
CONST	ENDS
;	COMDAT ?value@?$integral_constant@_N$00@tr1@std@@2_NB
CONST	SEGMENT
?value@?$integral_constant@_N$00@tr1@std@@2_NB DB 01H	; std::tr1::integral_constant<bool,1>::value
CONST	ENDS
;	COMDAT ?value@?$integral_constant@_N$0A@@tr1@std@@2_NB
CONST	SEGMENT
?value@?$integral_constant@_N$0A@@tr1@std@@2_NB DB 00H	; std::tr1::integral_constant<bool,0>::value
CONST	ENDS
PUBLIC	??1TestClass@@UAE@XZ				; TestClass::~TestClass
PUBLIC	?testFactory@TestCameraDriver@@QAEXXZ		; TestCameraDriver::testFactory
PUBLIC	??_7TestCameraDriver@@6B@			; TestCameraDriver::`vftable'
PUBLIC	??0TestClass@@QAE@XZ				; TestClass::TestClass
PUBLIC	??0TestCameraDriver@@QAE@XZ			; TestCameraDriver::TestCameraDriver
PUBLIC	??_R4TestCameraDriver@@6B@			; TestCameraDriver::`RTTI Complete Object Locator'
PUBLIC	??_R0?AVTestCameraDriver@@@8			; TestCameraDriver `RTTI Type Descriptor'
PUBLIC	??_R3TestCameraDriver@@8			; TestCameraDriver::`RTTI Class Hierarchy Descriptor'
PUBLIC	??_R2TestCameraDriver@@8			; TestCameraDriver::`RTTI Base Class Array'
PUBLIC	??_R1A@?0A@EA@TestCameraDriver@@8		; TestCameraDriver::`RTTI Base Class Descriptor at (0,-1,0,64)'
PUBLIC	??_R1A@?0A@EA@TestClass@@8			; TestClass::`RTTI Base Class Descriptor at (0,-1,0,64)'
PUBLIC	??_R0?AVTestClass@@@8				; TestClass `RTTI Type Descriptor'
PUBLIC	??_R3TestClass@@8				; TestClass::`RTTI Class Hierarchy Descriptor'
PUBLIC	??_R2TestClass@@8				; TestClass::`RTTI Base Class Array'
EXTRN	___security_cookie:DWORD
EXTRN	___CxxFrameHandler3:PROC
EXTRN	@__security_check_cookie@4:PROC
EXTRN	__RTC_CheckEsp:PROC
EXTRN	__RTC_Shutdown:PROC
EXTRN	__RTC_InitBase:PROC
EXTRN	??_7type_info@@6B@:QWORD			; type_info::`vftable'
EXTRN	??_ETestCameraDriver@@UAEPAXI@Z:PROC		; TestCameraDriver::`vector deleting destructor'
;	COMDAT ??_R2TestClass@@8
; File c:\users\tdrol\documents\visual studio 2010\projects\parking\detector\testcameradriver.cpp
rdata$r	SEGMENT
??_R2TestClass@@8 DD FLAT:??_R1A@?0A@EA@TestClass@@8	; TestClass::`RTTI Base Class Array'
rdata$r	ENDS
;	COMDAT ??_R3TestClass@@8
rdata$r	SEGMENT
??_R3TestClass@@8 DD 00H				; TestClass::`RTTI Class Hierarchy Descriptor'
	DD	00H
	DD	01H
	DD	FLAT:??_R2TestClass@@8
rdata$r	ENDS
;	COMDAT ??_R0?AVTestClass@@@8
_DATA	SEGMENT
??_R0?AVTestClass@@@8 DD FLAT:??_7type_info@@6B@	; TestClass `RTTI Type Descriptor'
	DD	00H
	DB	'.?AVTestClass@@', 00H
_DATA	ENDS
;	COMDAT ??_R1A@?0A@EA@TestClass@@8
rdata$r	SEGMENT
??_R1A@?0A@EA@TestClass@@8 DD FLAT:??_R0?AVTestClass@@@8 ; TestClass::`RTTI Base Class Descriptor at (0,-1,0,64)'
	DD	00H
	DD	00H
	DD	0ffffffffH
	DD	00H
	DD	040H
	DD	FLAT:??_R3TestClass@@8
rdata$r	ENDS
;	COMDAT ??_R1A@?0A@EA@TestCameraDriver@@8
rdata$r	SEGMENT
??_R1A@?0A@EA@TestCameraDriver@@8 DD FLAT:??_R0?AVTestCameraDriver@@@8 ; TestCameraDriver::`RTTI Base Class Descriptor at (0,-1,0,64)'
	DD	01H
	DD	00H
	DD	0ffffffffH
	DD	00H
	DD	040H
	DD	FLAT:??_R3TestCameraDriver@@8
rdata$r	ENDS
;	COMDAT ??_R2TestCameraDriver@@8
rdata$r	SEGMENT
??_R2TestCameraDriver@@8 DD FLAT:??_R1A@?0A@EA@TestCameraDriver@@8 ; TestCameraDriver::`RTTI Base Class Array'
	DD	FLAT:??_R1A@?0A@EA@TestClass@@8
rdata$r	ENDS
;	COMDAT ??_R3TestCameraDriver@@8
rdata$r	SEGMENT
??_R3TestCameraDriver@@8 DD 00H				; TestCameraDriver::`RTTI Class Hierarchy Descriptor'
	DD	00H
	DD	02H
	DD	FLAT:??_R2TestCameraDriver@@8
rdata$r	ENDS
;	COMDAT ??_R0?AVTestCameraDriver@@@8
_DATA	SEGMENT
??_R0?AVTestCameraDriver@@@8 DD FLAT:??_7type_info@@6B@	; TestCameraDriver `RTTI Type Descriptor'
	DD	00H
	DB	'.?AVTestCameraDriver@@', 00H
_DATA	ENDS
;	COMDAT ??_R4TestCameraDriver@@6B@
rdata$r	SEGMENT
??_R4TestCameraDriver@@6B@ DD 00H			; TestCameraDriver::`RTTI Complete Object Locator'
	DD	00H
	DD	00H
	DD	FLAT:??_R0?AVTestCameraDriver@@@8
	DD	FLAT:??_R3TestCameraDriver@@8
rdata$r	ENDS
;	COMDAT ??_7TestCameraDriver@@6B@
CONST	SEGMENT
??_7TestCameraDriver@@6B@ DD FLAT:??_R4TestCameraDriver@@6B@ ; TestCameraDriver::`vftable'
	DD	FLAT:??_ETestCameraDriver@@UAEPAXI@Z
CONST	ENDS
;	COMDAT xdata$x
xdata$x	SEGMENT
__unwindtable$??0TestCameraDriver@@QAE@XZ DD 0ffffffffH
	DD	FLAT:__unwindfunclet$??0TestCameraDriver@@QAE@XZ$0
__ehfuncinfo$??0TestCameraDriver@@QAE@XZ DD 019930522H
	DD	01H
	DD	FLAT:__unwindtable$??0TestCameraDriver@@QAE@XZ
	DD	2 DUP(00H)
	DD	2 DUP(00H)
	DD	00H
	DD	01H
xdata$x	ENDS
;	COMDAT rtc$TMZ
rtc$TMZ	SEGMENT
__RTC_Shutdown.rtc$TMZ DD FLAT:__RTC_Shutdown
rtc$TMZ	ENDS
;	COMDAT rtc$IMZ
rtc$IMZ	SEGMENT
__RTC_InitBase.rtc$IMZ DD FLAT:__RTC_InitBase
; Function compile flags: /Odtp /RTCsu /ZI
rtc$IMZ	ENDS
;	COMDAT ??0TestCameraDriver@@QAE@XZ
_TEXT	SEGMENT
_this$ = -20						; size = 4
__$EHRec$ = -12						; size = 12
??0TestCameraDriver@@QAE@XZ PROC			; TestCameraDriver::TestCameraDriver, COMDAT
; _this$ = ecx

; 6    : {

	push	ebp
	mov	ebp, esp
	push	-1
	push	__ehhandler$??0TestCameraDriver@@QAE@XZ
	mov	eax, DWORD PTR fs:0
	push	eax
	sub	esp, 204				; 000000ccH
	push	ebx
	push	esi
	push	edi
	push	ecx
	lea	edi, DWORD PTR [ebp-216]
	mov	ecx, 51					; 00000033H
	mov	eax, -858993460				; ccccccccH
	rep stosd
	pop	ecx
	mov	eax, DWORD PTR ___security_cookie
	xor	eax, ebp
	push	eax
	lea	eax, DWORD PTR __$EHRec$[ebp]
	mov	DWORD PTR fs:0, eax
	mov	DWORD PTR _this$[ebp], ecx
	mov	ecx, DWORD PTR _this$[ebp]
	call	??0TestClass@@QAE@XZ
	mov	DWORD PTR __$EHRec$[ebp+8], 0
	mov	eax, DWORD PTR _this$[ebp]
	mov	DWORD PTR [eax], OFFSET ??_7TestCameraDriver@@6B@

; 7    : 	testFactory();

	mov	ecx, DWORD PTR _this$[ebp]
	call	?testFactory@TestCameraDriver@@QAEXXZ	; TestCameraDriver::testFactory

; 8    : };

	mov	DWORD PTR __$EHRec$[ebp+8], -1
	mov	eax, DWORD PTR _this$[ebp]
	mov	ecx, DWORD PTR __$EHRec$[ebp]
	mov	DWORD PTR fs:0, ecx
	pop	ecx
	pop	edi
	pop	esi
	pop	ebx
	add	esp, 216				; 000000d8H
	cmp	ebp, esp
	call	__RTC_CheckEsp
	mov	esp, ebp
	pop	ebp
	ret	0
_TEXT	ENDS
;	COMDAT text$x
text$x	SEGMENT
__unwindfunclet$??0TestCameraDriver@@QAE@XZ$0:
	mov	ecx, DWORD PTR _this$[ebp]
	jmp	??1TestClass@@UAE@XZ			; TestClass::~TestClass
__ehhandler$??0TestCameraDriver@@QAE@XZ:
	mov	edx, DWORD PTR [esp+8]
	lea	eax, DWORD PTR [edx+12]
	mov	ecx, DWORD PTR [edx-220]
	xor	ecx, eax
	call	@__security_check_cookie@4
	mov	eax, OFFSET __ehfuncinfo$??0TestCameraDriver@@QAE@XZ
	jmp	___CxxFrameHandler3
text$x	ENDS
??0TestCameraDriver@@QAE@XZ ENDP			; TestCameraDriver::TestCameraDriver
PUBLIC	??_7TestClass@@6B@				; TestClass::`vftable'
PUBLIC	??_R4TestClass@@6B@				; TestClass::`RTTI Complete Object Locator'
EXTRN	??_ETestClass@@UAEPAXI@Z:PROC			; TestClass::`vector deleting destructor'
;	COMDAT ??_R4TestClass@@6B@
; File c:\users\tdrol\documents\visual studio 2010\projects\parking\detector\testclass.h
rdata$r	SEGMENT
??_R4TestClass@@6B@ DD 00H				; TestClass::`RTTI Complete Object Locator'
	DD	00H
	DD	00H
	DD	FLAT:??_R0?AVTestClass@@@8
	DD	FLAT:??_R3TestClass@@8
rdata$r	ENDS
;	COMDAT ??_7TestClass@@6B@
CONST	SEGMENT
??_7TestClass@@6B@ DD FLAT:??_R4TestClass@@6B@		; TestClass::`vftable'
	DD	FLAT:??_ETestClass@@UAEPAXI@Z
; Function compile flags: /Odtp /RTCsu /ZI
CONST	ENDS
;	COMDAT ??1TestClass@@UAE@XZ
_TEXT	SEGMENT
_this$ = -8						; size = 4
??1TestClass@@UAE@XZ PROC				; TestClass::~TestClass, COMDAT
; _this$ = ecx

; 14   : 	virtual ~TestClass() {}

	push	ebp
	mov	ebp, esp
	sub	esp, 204				; 000000ccH
	push	ebx
	push	esi
	push	edi
	push	ecx
	lea	edi, DWORD PTR [ebp-204]
	mov	ecx, 51					; 00000033H
	mov	eax, -858993460				; ccccccccH
	rep stosd
	pop	ecx
	mov	DWORD PTR _this$[ebp], ecx
	mov	eax, DWORD PTR _this$[ebp]
	mov	DWORD PTR [eax], OFFSET ??_7TestClass@@6B@
	pop	edi
	pop	esi
	pop	ebx
	mov	esp, ebp
	pop	ebp
	ret	0
??1TestClass@@UAE@XZ ENDP				; TestClass::~TestClass
_TEXT	ENDS
EXTRN	??3@YAXPAX@Z:PROC				; operator delete
; Function compile flags: /Odtp /RTCsu /ZI
;	COMDAT ??_GTestClass@@UAEPAXI@Z
_TEXT	SEGMENT
_this$ = -8						; size = 4
___flags$ = 8						; size = 4
??_GTestClass@@UAEPAXI@Z PROC				; TestClass::`scalar deleting destructor', COMDAT
; _this$ = ecx
	push	ebp
	mov	ebp, esp
	sub	esp, 204				; 000000ccH
	push	ebx
	push	esi
	push	edi
	push	ecx
	lea	edi, DWORD PTR [ebp-204]
	mov	ecx, 51					; 00000033H
	mov	eax, -858993460				; ccccccccH
	rep stosd
	pop	ecx
	mov	DWORD PTR _this$[ebp], ecx
	mov	ecx, DWORD PTR _this$[ebp]
	call	??1TestClass@@UAE@XZ			; TestClass::~TestClass
	mov	eax, DWORD PTR ___flags$[ebp]
	and	eax, 1
	je	SHORT $LN1@scalar
	mov	eax, DWORD PTR _this$[ebp]
	push	eax
	call	??3@YAXPAX@Z				; operator delete
	add	esp, 4
$LN1@scalar:
	mov	eax, DWORD PTR _this$[ebp]
	pop	edi
	pop	esi
	pop	ebx
	add	esp, 204				; 000000ccH
	cmp	ebp, esp
	call	__RTC_CheckEsp
	mov	esp, ebp
	pop	ebp
	ret	4
??_GTestClass@@UAEPAXI@Z ENDP				; TestClass::`scalar deleting destructor'
_TEXT	ENDS
PUBLIC	??1TestCameraDriver@@UAE@XZ			; TestCameraDriver::~TestCameraDriver
; Function compile flags: /Odtp /RTCsu /ZI
;	COMDAT ??_GTestCameraDriver@@UAEPAXI@Z
_TEXT	SEGMENT
_this$ = -8						; size = 4
___flags$ = 8						; size = 4
??_GTestCameraDriver@@UAEPAXI@Z PROC			; TestCameraDriver::`scalar deleting destructor', COMDAT
; _this$ = ecx
	push	ebp
	mov	ebp, esp
	sub	esp, 204				; 000000ccH
	push	ebx
	push	esi
	push	edi
	push	ecx
	lea	edi, DWORD PTR [ebp-204]
	mov	ecx, 51					; 00000033H
	mov	eax, -858993460				; ccccccccH
	rep stosd
	pop	ecx
	mov	DWORD PTR _this$[ebp], ecx
	mov	ecx, DWORD PTR _this$[ebp]
	call	??1TestCameraDriver@@UAE@XZ
	mov	eax, DWORD PTR ___flags$[ebp]
	and	eax, 1
	je	SHORT $LN1@scalar@2
	mov	eax, DWORD PTR _this$[ebp]
	push	eax
	call	??3@YAXPAX@Z				; operator delete
	add	esp, 4
$LN1@scalar@2:
	mov	eax, DWORD PTR _this$[ebp]
	pop	edi
	pop	esi
	pop	ebx
	add	esp, 204				; 000000ccH
	cmp	ebp, esp
	call	__RTC_CheckEsp
	mov	esp, ebp
	pop	ebp
	ret	4
??_GTestCameraDriver@@UAEPAXI@Z ENDP			; TestCameraDriver::`scalar deleting destructor'
; Function compile flags: /Odtp /RTCsu /ZI
_TEXT	ENDS
;	COMDAT ??0TestClass@@QAE@XZ
_TEXT	SEGMENT
_this$ = -8						; size = 4
??0TestClass@@QAE@XZ PROC				; TestClass::TestClass, COMDAT
; _this$ = ecx
	push	ebp
	mov	ebp, esp
	sub	esp, 204				; 000000ccH
	push	ebx
	push	esi
	push	edi
	push	ecx
	lea	edi, DWORD PTR [ebp-204]
	mov	ecx, 51					; 00000033H
	mov	eax, -858993460				; ccccccccH
	rep stosd
	pop	ecx
	mov	DWORD PTR _this$[ebp], ecx
	mov	eax, DWORD PTR _this$[ebp]
	mov	DWORD PTR [eax], OFFSET ??_7TestClass@@6B@
	mov	eax, DWORD PTR _this$[ebp]
	pop	edi
	pop	esi
	pop	ebx
	mov	esp, ebp
	pop	ebp
	ret	0
??0TestClass@@QAE@XZ ENDP				; TestClass::TestClass
; Function compile flags: /Odtp /RTCsu /ZI
_TEXT	ENDS
;	COMDAT ??1TestCameraDriver@@UAE@XZ
_TEXT	SEGMENT
_this$ = -8						; size = 4
??1TestCameraDriver@@UAE@XZ PROC			; TestCameraDriver::~TestCameraDriver, COMDAT
; _this$ = ecx
	push	ebp
	mov	ebp, esp
	sub	esp, 204				; 000000ccH
	push	ebx
	push	esi
	push	edi
	push	ecx
	lea	edi, DWORD PTR [ebp-204]
	mov	ecx, 51					; 00000033H
	mov	eax, -858993460				; ccccccccH
	rep stosd
	pop	ecx
	mov	DWORD PTR _this$[ebp], ecx
	mov	ecx, DWORD PTR _this$[ebp]
	call	??1TestClass@@UAE@XZ			; TestClass::~TestClass
	pop	edi
	pop	esi
	pop	ebx
	add	esp, 204				; 000000ccH
	cmp	ebp, esp
	call	__RTC_CheckEsp
	mov	esp, ebp
	pop	ebp
	ret	0
??1TestCameraDriver@@UAE@XZ ENDP			; TestCameraDriver::~TestCameraDriver
_TEXT	ENDS
PUBLIC	??1?$unique_ptr@VCameraDriver@@U?$default_delete@VCameraDriver@@@std@@@std@@QAE@XZ ; std::unique_ptr<CameraDriver,std::default_delete<CameraDriver> >::~unique_ptr<CameraDriver,std::default_delete<CameraDriver> >
PUBLIC	??_C@_0BI@KJFNOGHI@creating?5invalid?5driver?$AA@ ; `string'
PUBLIC	??C?$unique_ptr@VCameraDriver@@U?$default_delete@VCameraDriver@@@std@@@std@@QBEPAVCameraDriver@@XZ ; std::unique_ptr<CameraDriver,std::default_delete<CameraDriver> >::operator->
PUBLIC	?get@?$unique_ptr@VCameraDriver@@U?$default_delete@VCameraDriver@@@std@@@std@@QBEPAVCameraDriver@@XZ ; std::unique_ptr<CameraDriver,std::default_delete<CameraDriver> >::get
PUBLIC	??_C@_07CIFAGBMG@unknown?$AA@			; `string'
PUBLIC	??_C@_0BA@MEPDJAEM@creating?5driver?$AA@	; `string'
PUBLIC	??B?$unique_ptr@VCameraDriver@@U?$default_delete@VCameraDriver@@@std@@@std@@QBEPQ_Bool_struct@1@HXZ ; std::unique_ptr<CameraDriver,std::default_delete<CameraDriver> >::operator int std::_Bool_struct::*
PUBLIC	?reset@?$unique_ptr@VCameraDriver@@U?$default_delete@VCameraDriver@@@std@@@std@@QAEXPAVCameraDriver@@@Z ; std::unique_ptr<CameraDriver,std::default_delete<CameraDriver> >::reset
PUBLIC	??_C@_00CNPNBAHC@?$AA@				; `string'
PUBLIC	??0?$unique_ptr@VCameraDriver@@U?$default_delete@VCameraDriver@@@std@@@std@@QAE@XZ ; std::unique_ptr<CameraDriver,std::default_delete<CameraDriver> >::unique_ptr<CameraDriver,std::default_delete<CameraDriver> >
EXTRN	?addResult@TestClass@@QAEXPBD_N@Z:PROC		; TestClass::addResult
EXTRN	?factory@CameraDriver@@SAPAV1@PBD0@Z:PROC	; CameraDriver::factory
EXTRN	@_RTC_CheckStackVars@8:PROC
;	COMDAT ??_C@_0BI@KJFNOGHI@creating?5invalid?5driver?$AA@
; File c:\users\tdrol\documents\visual studio 2010\projects\parking\detector\testcameradriver.cpp
CONST	SEGMENT
??_C@_0BI@KJFNOGHI@creating?5invalid?5driver?$AA@ DB 'creating invalid dr'
	DB	'iver', 00H					; `string'
CONST	ENDS
;	COMDAT ??_C@_07CIFAGBMG@unknown?$AA@
CONST	SEGMENT
??_C@_07CIFAGBMG@unknown?$AA@ DB 'unknown', 00H		; `string'
CONST	ENDS
;	COMDAT ??_C@_0BA@MEPDJAEM@creating?5driver?$AA@
CONST	SEGMENT
??_C@_0BA@MEPDJAEM@creating?5driver?$AA@ DB 'creating driver', 00H ; `string'
CONST	ENDS
;	COMDAT ??_C@_00CNPNBAHC@?$AA@
CONST	SEGMENT
??_C@_00CNPNBAHC@?$AA@ DB 00H				; `string'
CONST	ENDS
;	COMDAT xdata$x
xdata$x	SEGMENT
__unwindtable$?testFactory@TestCameraDriver@@QAEXXZ DD 0ffffffffH
	DD	FLAT:__unwindfunclet$?testFactory@TestCameraDriver@@QAEXXZ$0
__ehfuncinfo$?testFactory@TestCameraDriver@@QAEXXZ DD 019930522H
	DD	01H
	DD	FLAT:__unwindtable$?testFactory@TestCameraDriver@@QAEXXZ
	DD	2 DUP(00H)
	DD	2 DUP(00H)
	DD	00H
	DD	01H
; Function compile flags: /Odtp /RTCsu /ZI
xdata$x	ENDS
;	COMDAT ?testFactory@TestCameraDriver@@QAEXXZ
_TEXT	SEGMENT
tv137 = -233						; size = 1
tv130 = -232						; size = 4
_camera$ = -32						; size = 4
_this$ = -20						; size = 4
__$EHRec$ = -12						; size = 12
?testFactory@TestCameraDriver@@QAEXXZ PROC		; TestCameraDriver::testFactory, COMDAT
; _this$ = ecx

; 11   : {

	push	ebp
	mov	ebp, esp
	push	-1
	push	__ehhandler$?testFactory@TestCameraDriver@@QAEXXZ
	mov	eax, DWORD PTR fs:0
	push	eax
	sub	esp, 224				; 000000e0H
	push	ebx
	push	esi
	push	edi
	push	ecx
	lea	edi, DWORD PTR [ebp-236]
	mov	ecx, 56					; 00000038H
	mov	eax, -858993460				; ccccccccH
	rep stosd
	pop	ecx
	mov	eax, DWORD PTR ___security_cookie
	xor	eax, ebp
	push	eax
	lea	eax, DWORD PTR __$EHRec$[ebp]
	mov	DWORD PTR fs:0, eax
	mov	DWORD PTR _this$[ebp], ecx

; 12   : 	std::unique_ptr<CameraDriver> camera;

	lea	ecx, DWORD PTR _camera$[ebp]
	call	??0?$unique_ptr@VCameraDriver@@U?$default_delete@VCameraDriver@@@std@@@std@@QAE@XZ ; std::unique_ptr<CameraDriver,std::default_delete<CameraDriver> >::unique_ptr<CameraDriver,std::default_delete<CameraDriver> >
	mov	DWORD PTR __$EHRec$[ebp+8], 0

; 13   : 	camera.reset(CameraDriver::factory("", ""));

	push	OFFSET ??_C@_00CNPNBAHC@?$AA@
	push	OFFSET ??_C@_00CNPNBAHC@?$AA@
	call	?factory@CameraDriver@@SAPAV1@PBD0@Z	; CameraDriver::factory
	add	esp, 8
	push	eax
	lea	ecx, DWORD PTR _camera$[ebp]
	call	?reset@?$unique_ptr@VCameraDriver@@U?$default_delete@VCameraDriver@@@std@@@std@@QAEXPAVCameraDriver@@@Z ; std::unique_ptr<CameraDriver,std::default_delete<CameraDriver> >::reset

; 14   : 	addResult("creating driver", (bool) camera);

	lea	ecx, DWORD PTR _camera$[ebp]
	call	??B?$unique_ptr@VCameraDriver@@U?$default_delete@VCameraDriver@@@std@@@std@@QBEPQ_Bool_struct@1@HXZ ; std::unique_ptr<CameraDriver,std::default_delete<CameraDriver> >::operator int std::_Bool_struct::*
	cmp	eax, -1
	setne	al
	movzx	ecx, al
	push	ecx
	push	OFFSET ??_C@_0BA@MEPDJAEM@creating?5driver?$AA@
	mov	ecx, DWORD PTR _this$[ebp]
	call	?addResult@TestClass@@QAEXPBD_N@Z	; TestClass::addResult

; 15   : 	
; 16   : 	camera.reset(CameraDriver::factory("unknown", ""));

	push	OFFSET ??_C@_00CNPNBAHC@?$AA@
	push	OFFSET ??_C@_07CIFAGBMG@unknown?$AA@
	call	?factory@CameraDriver@@SAPAV1@PBD0@Z	; CameraDriver::factory
	add	esp, 8
	push	eax
	lea	ecx, DWORD PTR _camera$[ebp]
	call	?reset@?$unique_ptr@VCameraDriver@@U?$default_delete@VCameraDriver@@@std@@@std@@QAEXPAVCameraDriver@@@Z ; std::unique_ptr<CameraDriver,std::default_delete<CameraDriver> >::reset

; 17   : 	addResult("creating invalid driver", camera.get() && ! camera->isValid());

	lea	ecx, DWORD PTR _camera$[ebp]
	call	?get@?$unique_ptr@VCameraDriver@@U?$default_delete@VCameraDriver@@@std@@@std@@QBEPAVCameraDriver@@XZ ; std::unique_ptr<CameraDriver,std::default_delete<CameraDriver> >::get
	test	eax, eax
	je	SHORT $LN3@testFactor
	lea	ecx, DWORD PTR _camera$[ebp]
	call	??C?$unique_ptr@VCameraDriver@@U?$default_delete@VCameraDriver@@@std@@@std@@QBEPAVCameraDriver@@XZ ; std::unique_ptr<CameraDriver,std::default_delete<CameraDriver> >::operator->
	mov	DWORD PTR tv130[ebp], eax
	mov	eax, DWORD PTR tv130[ebp]
	mov	edx, DWORD PTR [eax]
	mov	esi, esp
	mov	ecx, DWORD PTR tv130[ebp]
	mov	eax, DWORD PTR [edx+4]
	call	eax
	cmp	esi, esp
	call	__RTC_CheckEsp
	movzx	ecx, al
	test	ecx, ecx
	jne	SHORT $LN3@testFactor
	mov	BYTE PTR tv137[ebp], 1
	jmp	SHORT $LN4@testFactor
$LN3@testFactor:
	mov	BYTE PTR tv137[ebp], 0
$LN4@testFactor:
	movzx	edx, BYTE PTR tv137[ebp]
	push	edx
	push	OFFSET ??_C@_0BI@KJFNOGHI@creating?5invalid?5driver?$AA@
	mov	ecx, DWORD PTR _this$[ebp]
	call	?addResult@TestClass@@QAEXPBD_N@Z	; TestClass::addResult

; 18   : }

	mov	DWORD PTR __$EHRec$[ebp+8], -1
	lea	ecx, DWORD PTR _camera$[ebp]
	call	??1?$unique_ptr@VCameraDriver@@U?$default_delete@VCameraDriver@@@std@@@std@@QAE@XZ ; std::unique_ptr<CameraDriver,std::default_delete<CameraDriver> >::~unique_ptr<CameraDriver,std::default_delete<CameraDriver> >
	push	edx
	mov	ecx, ebp
	push	eax
	lea	edx, DWORD PTR $LN9@testFactor
	call	@_RTC_CheckStackVars@8
	pop	eax
	pop	edx
	mov	ecx, DWORD PTR __$EHRec$[ebp]
	mov	DWORD PTR fs:0, ecx
	pop	ecx
	pop	edi
	pop	esi
	pop	ebx
	add	esp, 236				; 000000ecH
	cmp	ebp, esp
	call	__RTC_CheckEsp
	mov	esp, ebp
	pop	ebp
	ret	0
	npad	1
$LN9@testFactor:
	DD	1
	DD	$LN8@testFactor
$LN8@testFactor:
	DD	-32					; ffffffe0H
	DD	4
	DD	$LN6@testFactor
$LN6@testFactor:
	DB	99					; 00000063H
	DB	97					; 00000061H
	DB	109					; 0000006dH
	DB	101					; 00000065H
	DB	114					; 00000072H
	DB	97					; 00000061H
	DB	0
_TEXT	ENDS
;	COMDAT text$x
text$x	SEGMENT
__unwindfunclet$?testFactory@TestCameraDriver@@QAEXXZ$0:
	lea	ecx, DWORD PTR _camera$[ebp]
	jmp	??1?$unique_ptr@VCameraDriver@@U?$default_delete@VCameraDriver@@@std@@@std@@QAE@XZ ; std::unique_ptr<CameraDriver,std::default_delete<CameraDriver> >::~unique_ptr<CameraDriver,std::default_delete<CameraDriver> >
__ehhandler$?testFactory@TestCameraDriver@@QAEXXZ:
	mov	edx, DWORD PTR [esp+8]
	lea	eax, DWORD PTR [edx+12]
	mov	ecx, DWORD PTR [edx-240]
	xor	ecx, eax
	call	@__security_check_cookie@4
	mov	eax, OFFSET __ehfuncinfo$?testFactory@TestCameraDriver@@QAEXXZ
	jmp	___CxxFrameHandler3
text$x	ENDS
?testFactory@TestCameraDriver@@QAEXXZ ENDP		; TestCameraDriver::testFactory
PUBLIC	??0?$_Unique_ptr_base@VCameraDriver@@U?$default_delete@VCameraDriver@@@std@@$00@std@@QAE@PAVCameraDriver@@U?$default_delete@VCameraDriver@@@1@@Z ; std::_Unique_ptr_base<CameraDriver,std::default_delete<CameraDriver>,1>::_Unique_ptr_base<CameraDriver,std::default_delete<CameraDriver>,1>
PUBLIC	??0?$default_delete@VCameraDriver@@@std@@QAE@XZ	; std::default_delete<CameraDriver>::default_delete<CameraDriver>
; Function compile flags: /Odtp /RTCsu /ZI
; File c:\program files (x86)\microsoft visual studio 10.0\vc\include\memory
;	COMDAT ??0?$unique_ptr@VCameraDriver@@U?$default_delete@VCameraDriver@@@std@@@std@@QAE@XZ
_TEXT	SEGMENT
$T38989 = -209						; size = 1
_this$ = -8						; size = 4
??0?$unique_ptr@VCameraDriver@@U?$default_delete@VCameraDriver@@@std@@@std@@QAE@XZ PROC ; std::unique_ptr<CameraDriver,std::default_delete<CameraDriver> >::unique_ptr<CameraDriver,std::default_delete<CameraDriver> >, COMDAT
; _this$ = ecx

; 2207 : 		{	// default construct

	push	ebp
	mov	ebp, esp
	sub	esp, 216				; 000000d8H
	push	ebx
	push	esi
	push	edi
	push	ecx
	lea	edi, DWORD PTR [ebp-216]
	mov	ecx, 54					; 00000036H
	mov	eax, -858993460				; ccccccccH
	rep stosd
	pop	ecx
	mov	DWORD PTR _this$[ebp], ecx
	lea	ecx, DWORD PTR $T38989[ebp]
	call	??0?$default_delete@VCameraDriver@@@std@@QAE@XZ ; std::default_delete<CameraDriver>::default_delete<CameraDriver>
	movzx	eax, BYTE PTR [eax]
	push	eax
	push	0
	mov	ecx, DWORD PTR _this$[ebp]
	call	??0?$_Unique_ptr_base@VCameraDriver@@U?$default_delete@VCameraDriver@@@std@@$00@std@@QAE@PAVCameraDriver@@U?$default_delete@VCameraDriver@@@1@@Z ; std::_Unique_ptr_base<CameraDriver,std::default_delete<CameraDriver>,1>::_Unique_ptr_base<CameraDriver,std::default_delete<CameraDriver>,1>

; 2208 : 		static_assert(!is_pointer<_Dx>::value,
; 2209 : 			"unique_ptr constructed with null deleter pointer");
; 2210 : 		}

	mov	eax, DWORD PTR _this$[ebp]
	pop	edi
	pop	esi
	pop	ebx
	add	esp, 216				; 000000d8H
	cmp	ebp, esp
	call	__RTC_CheckEsp
	mov	esp, ebp
	pop	ebp
	ret	0
??0?$unique_ptr@VCameraDriver@@U?$default_delete@VCameraDriver@@@std@@@std@@QAE@XZ ENDP ; std::unique_ptr<CameraDriver,std::default_delete<CameraDriver> >::unique_ptr<CameraDriver,std::default_delete<CameraDriver> >
_TEXT	ENDS
PUBLIC	?_Delete@?$unique_ptr@VCameraDriver@@U?$default_delete@VCameraDriver@@@std@@@std@@AAEXXZ ; std::unique_ptr<CameraDriver,std::default_delete<CameraDriver> >::_Delete
; Function compile flags: /Odtp /RTCsu /ZI
;	COMDAT ??1?$unique_ptr@VCameraDriver@@U?$default_delete@VCameraDriver@@@std@@@std@@QAE@XZ
_TEXT	SEGMENT
_this$ = -8						; size = 4
??1?$unique_ptr@VCameraDriver@@U?$default_delete@VCameraDriver@@@std@@@std@@QAE@XZ PROC ; std::unique_ptr<CameraDriver,std::default_delete<CameraDriver> >::~unique_ptr<CameraDriver,std::default_delete<CameraDriver> >, COMDAT
; _this$ = ecx

; 2300 : 		{	// destroy the object

	push	ebp
	mov	ebp, esp
	sub	esp, 204				; 000000ccH
	push	ebx
	push	esi
	push	edi
	push	ecx
	lea	edi, DWORD PTR [ebp-204]
	mov	ecx, 51					; 00000033H
	mov	eax, -858993460				; ccccccccH
	rep stosd
	pop	ecx
	mov	DWORD PTR _this$[ebp], ecx

; 2301 : 		_Delete();

	mov	ecx, DWORD PTR _this$[ebp]
	call	?_Delete@?$unique_ptr@VCameraDriver@@U?$default_delete@VCameraDriver@@@std@@@std@@AAEXXZ ; std::unique_ptr<CameraDriver,std::default_delete<CameraDriver> >::_Delete

; 2302 : 		}

	pop	edi
	pop	esi
	pop	ebx
	add	esp, 204				; 000000ccH
	cmp	ebp, esp
	call	__RTC_CheckEsp
	mov	esp, ebp
	pop	ebp
	ret	0
??1?$unique_ptr@VCameraDriver@@U?$default_delete@VCameraDriver@@@std@@@std@@QAE@XZ ENDP ; std::unique_ptr<CameraDriver,std::default_delete<CameraDriver> >::~unique_ptr<CameraDriver,std::default_delete<CameraDriver> >
_TEXT	ENDS
PUBLIC	??D?$unique_ptr@VCameraDriver@@U?$default_delete@VCameraDriver@@@std@@@std@@QBEAAVCameraDriver@@XZ ; std::unique_ptr<CameraDriver,std::default_delete<CameraDriver> >::operator*
; Function compile flags: /Odtp /RTCsu /ZI
;	COMDAT ??C?$unique_ptr@VCameraDriver@@U?$default_delete@VCameraDriver@@@std@@@std@@QBEPAVCameraDriver@@XZ
_TEXT	SEGMENT
_this$ = -8						; size = 4
??C?$unique_ptr@VCameraDriver@@U?$default_delete@VCameraDriver@@@std@@@std@@QBEPAVCameraDriver@@XZ PROC ; std::unique_ptr<CameraDriver,std::default_delete<CameraDriver> >::operator->, COMDAT
; _this$ = ecx

; 2310 : 		{	// return pointer to class object

	push	ebp
	mov	ebp, esp
	sub	esp, 204				; 000000ccH
	push	ebx
	push	esi
	push	edi
	push	ecx
	lea	edi, DWORD PTR [ebp-204]
	mov	ecx, 51					; 00000033H
	mov	eax, -858993460				; ccccccccH
	rep stosd
	pop	ecx
	mov	DWORD PTR _this$[ebp], ecx

; 2311 : 		return (&**this);

	mov	ecx, DWORD PTR _this$[ebp]
	call	??D?$unique_ptr@VCameraDriver@@U?$default_delete@VCameraDriver@@@std@@@std@@QBEAAVCameraDriver@@XZ ; std::unique_ptr<CameraDriver,std::default_delete<CameraDriver> >::operator*

; 2312 : 		}

	pop	edi
	pop	esi
	pop	ebx
	add	esp, 204				; 000000ccH
	cmp	ebp, esp
	call	__RTC_CheckEsp
	mov	esp, ebp
	pop	ebp
	ret	0
??C?$unique_ptr@VCameraDriver@@U?$default_delete@VCameraDriver@@@std@@@std@@QBEPAVCameraDriver@@XZ ENDP ; std::unique_ptr<CameraDriver,std::default_delete<CameraDriver> >::operator->
; Function compile flags: /Odtp /RTCsu /ZI
_TEXT	ENDS
;	COMDAT ?get@?$unique_ptr@VCameraDriver@@U?$default_delete@VCameraDriver@@@std@@@std@@QBEPAVCameraDriver@@XZ
_TEXT	SEGMENT
_this$ = -8						; size = 4
?get@?$unique_ptr@VCameraDriver@@U?$default_delete@VCameraDriver@@@std@@@std@@QBEPAVCameraDriver@@XZ PROC ; std::unique_ptr<CameraDriver,std::default_delete<CameraDriver> >::get, COMDAT
; _this$ = ecx

; 2315 : 		{	// return pointer to object

	push	ebp
	mov	ebp, esp
	sub	esp, 204				; 000000ccH
	push	ebx
	push	esi
	push	edi
	push	ecx
	lea	edi, DWORD PTR [ebp-204]
	mov	ecx, 51					; 00000033H
	mov	eax, -858993460				; ccccccccH
	rep stosd
	pop	ecx
	mov	DWORD PTR _this$[ebp], ecx

; 2316 : 		return (this->_Myptr);

	mov	eax, DWORD PTR _this$[ebp]
	mov	eax, DWORD PTR [eax]

; 2317 : 		}

	pop	edi
	pop	esi
	pop	ebx
	mov	esp, ebp
	pop	ebp
	ret	0
?get@?$unique_ptr@VCameraDriver@@U?$default_delete@VCameraDriver@@@std@@@std@@QBEPAVCameraDriver@@XZ ENDP ; std::unique_ptr<CameraDriver,std::default_delete<CameraDriver> >::get
; Function compile flags: /Odtp /RTCsu /ZI
_TEXT	ENDS
;	COMDAT ??B?$unique_ptr@VCameraDriver@@U?$default_delete@VCameraDriver@@@std@@@std@@QBEPQ_Bool_struct@1@HXZ
_TEXT	SEGMENT
_this$ = -8						; size = 4
??B?$unique_ptr@VCameraDriver@@U?$default_delete@VCameraDriver@@@std@@@std@@QBEPQ_Bool_struct@1@HXZ PROC ; std::unique_ptr<CameraDriver,std::default_delete<CameraDriver> >::operator int std::_Bool_struct::*, COMDAT
; _this$ = ecx

; 2320 : 		{	// test for non-null pointer

	push	ebp
	mov	ebp, esp
	sub	esp, 204				; 000000ccH
	push	ebx
	push	esi
	push	edi
	push	ecx
	lea	edi, DWORD PTR [ebp-204]
	mov	ecx, 51					; 00000033H
	mov	eax, -858993460				; ccccccccH
	rep stosd
	pop	ecx
	mov	DWORD PTR _this$[ebp], ecx

; 2321 : 		return (this->_Myptr != pointer() ? _CONVERTIBLE_TO_TRUE : 0);

	mov	eax, DWORD PTR _this$[ebp]
	mov	eax, DWORD PTR [eax]
	neg	eax
	sbb	eax, eax
	neg	eax
	sub	eax, 1

; 2322 : 		}

	pop	edi
	pop	esi
	pop	ebx
	mov	esp, ebp
	pop	ebp
	ret	0
??B?$unique_ptr@VCameraDriver@@U?$default_delete@VCameraDriver@@@std@@@std@@QBEPQ_Bool_struct@1@HXZ ENDP ; std::unique_ptr<CameraDriver,std::default_delete<CameraDriver> >::operator int std::_Bool_struct::*
; Function compile flags: /Odtp /RTCsu /ZI
_TEXT	ENDS
;	COMDAT ?reset@?$unique_ptr@VCameraDriver@@U?$default_delete@VCameraDriver@@@std@@@std@@QAEXPAVCameraDriver@@@Z
_TEXT	SEGMENT
_this$ = -8						; size = 4
__Ptr$ = 8						; size = 4
?reset@?$unique_ptr@VCameraDriver@@U?$default_delete@VCameraDriver@@@std@@@std@@QAEXPAVCameraDriver@@@Z PROC ; std::unique_ptr<CameraDriver,std::default_delete<CameraDriver> >::reset, COMDAT
; _this$ = ecx

; 2332 : 		{	// establish new pointer

	push	ebp
	mov	ebp, esp
	sub	esp, 204				; 000000ccH
	push	ebx
	push	esi
	push	edi
	push	ecx
	lea	edi, DWORD PTR [ebp-204]
	mov	ecx, 51					; 00000033H
	mov	eax, -858993460				; ccccccccH
	rep stosd
	pop	ecx
	mov	DWORD PTR _this$[ebp], ecx

; 2333 : 		if (_Ptr != this->_Myptr)

	mov	eax, DWORD PTR _this$[ebp]
	mov	ecx, DWORD PTR __Ptr$[ebp]
	cmp	ecx, DWORD PTR [eax]
	je	SHORT $LN2@reset

; 2334 : 			{	// different pointer, delete old and reassign
; 2335 : 			_Delete();

	mov	ecx, DWORD PTR _this$[ebp]
	call	?_Delete@?$unique_ptr@VCameraDriver@@U?$default_delete@VCameraDriver@@@std@@@std@@AAEXXZ ; std::unique_ptr<CameraDriver,std::default_delete<CameraDriver> >::_Delete

; 2336 : 			this->_Myptr = _Ptr;

	mov	eax, DWORD PTR _this$[ebp]
	mov	ecx, DWORD PTR __Ptr$[ebp]
	mov	DWORD PTR [eax], ecx
$LN2@reset:

; 2337 : 			}
; 2338 : 		}

	pop	edi
	pop	esi
	pop	ebx
	add	esp, 204				; 000000ccH
	cmp	ebp, esp
	call	__RTC_CheckEsp
	mov	esp, ebp
	pop	ebp
	ret	4
?reset@?$unique_ptr@VCameraDriver@@U?$default_delete@VCameraDriver@@@std@@@std@@QAEXPAVCameraDriver@@@Z ENDP ; std::unique_ptr<CameraDriver,std::default_delete<CameraDriver> >::reset
; Function compile flags: /Odtp /RTCsu /ZI
_TEXT	ENDS
;	COMDAT ??D?$unique_ptr@VCameraDriver@@U?$default_delete@VCameraDriver@@@std@@@std@@QBEAAVCameraDriver@@XZ
_TEXT	SEGMENT
_this$ = -8						; size = 4
??D?$unique_ptr@VCameraDriver@@U?$default_delete@VCameraDriver@@@std@@@std@@QBEAAVCameraDriver@@XZ PROC ; std::unique_ptr<CameraDriver,std::default_delete<CameraDriver> >::operator*, COMDAT
; _this$ = ecx

; 2305 : 		{	// return reference to object

	push	ebp
	mov	ebp, esp
	sub	esp, 204				; 000000ccH
	push	ebx
	push	esi
	push	edi
	push	ecx
	lea	edi, DWORD PTR [ebp-204]
	mov	ecx, 51					; 00000033H
	mov	eax, -858993460				; ccccccccH
	rep stosd
	pop	ecx
	mov	DWORD PTR _this$[ebp], ecx

; 2306 : 		return (*this->_Myptr);

	mov	eax, DWORD PTR _this$[ebp]
	mov	eax, DWORD PTR [eax]

; 2307 : 		}

	pop	edi
	pop	esi
	pop	ebx
	mov	esp, ebp
	pop	ebp
	ret	0
??D?$unique_ptr@VCameraDriver@@U?$default_delete@VCameraDriver@@@std@@@std@@QBEAAVCameraDriver@@XZ ENDP ; std::unique_ptr<CameraDriver,std::default_delete<CameraDriver> >::operator*
_TEXT	ENDS
PUBLIC	??R?$default_delete@VCameraDriver@@@std@@QBEXPAVCameraDriver@@@Z ; std::default_delete<CameraDriver>::operator()
PUBLIC	?get_deleter@?$_Unique_ptr_base@VCameraDriver@@U?$default_delete@VCameraDriver@@@std@@$00@std@@QAEAAU?$default_delete@VCameraDriver@@@2@XZ ; std::_Unique_ptr_base<CameraDriver,std::default_delete<CameraDriver>,1>::get_deleter
; Function compile flags: /Odtp /RTCsu /ZI
;	COMDAT ?_Delete@?$unique_ptr@VCameraDriver@@U?$default_delete@VCameraDriver@@@std@@@std@@AAEXXZ
_TEXT	SEGMENT
_this$ = -8						; size = 4
?_Delete@?$unique_ptr@VCameraDriver@@U?$default_delete@VCameraDriver@@@std@@@std@@AAEXXZ PROC ; std::unique_ptr<CameraDriver,std::default_delete<CameraDriver> >::_Delete, COMDAT
; _this$ = ecx

; 2342 : 		{	// delete the pointer

	push	ebp
	mov	ebp, esp
	sub	esp, 204				; 000000ccH
	push	ebx
	push	esi
	push	edi
	push	ecx
	lea	edi, DWORD PTR [ebp-204]
	mov	ecx, 51					; 00000033H
	mov	eax, -858993460				; ccccccccH
	rep stosd
	pop	ecx
	mov	DWORD PTR _this$[ebp], ecx

; 2343 : 		if (this->_Myptr != pointer())

	mov	eax, DWORD PTR _this$[ebp]
	cmp	DWORD PTR [eax], 0
	je	SHORT $LN2@Delete

; 2344 : 			this->get_deleter()(this->_Myptr);

	mov	eax, DWORD PTR _this$[ebp]
	mov	ecx, DWORD PTR [eax]
	push	ecx
	mov	ecx, DWORD PTR _this$[ebp]
	call	?get_deleter@?$_Unique_ptr_base@VCameraDriver@@U?$default_delete@VCameraDriver@@@std@@$00@std@@QAEAAU?$default_delete@VCameraDriver@@@2@XZ ; std::_Unique_ptr_base<CameraDriver,std::default_delete<CameraDriver>,1>::get_deleter
	mov	ecx, eax
	call	??R?$default_delete@VCameraDriver@@@std@@QBEXPAVCameraDriver@@@Z ; std::default_delete<CameraDriver>::operator()
$LN2@Delete:

; 2345 : 		}

	pop	edi
	pop	esi
	pop	ebx
	add	esp, 204				; 000000ccH
	cmp	ebp, esp
	call	__RTC_CheckEsp
	mov	esp, ebp
	pop	ebp
	ret	0
?_Delete@?$unique_ptr@VCameraDriver@@U?$default_delete@VCameraDriver@@@std@@@std@@AAEXXZ ENDP ; std::unique_ptr<CameraDriver,std::default_delete<CameraDriver> >::_Delete
; Function compile flags: /Odtp /RTCsu /ZI
_TEXT	ENDS
;	COMDAT ??0?$default_delete@VCameraDriver@@@std@@QAE@XZ
_TEXT	SEGMENT
_this$ = -8						; size = 4
??0?$default_delete@VCameraDriver@@@std@@QAE@XZ PROC	; std::default_delete<CameraDriver>::default_delete<CameraDriver>, COMDAT
; _this$ = ecx

; 2056 : 	default_delete()

	push	ebp
	mov	ebp, esp
	sub	esp, 204				; 000000ccH
	push	ebx
	push	esi
	push	edi
	push	ecx
	lea	edi, DWORD PTR [ebp-204]
	mov	ecx, 51					; 00000033H
	mov	eax, -858993460				; ccccccccH
	rep stosd
	pop	ecx
	mov	DWORD PTR _this$[ebp], ecx

; 2057 : 		{	// default construct
; 2058 : 		}

	mov	eax, DWORD PTR _this$[ebp]
	pop	edi
	pop	esi
	pop	ebx
	mov	esp, ebp
	pop	ebp
	ret	0
??0?$default_delete@VCameraDriver@@@std@@QAE@XZ ENDP	; std::default_delete<CameraDriver>::default_delete<CameraDriver>
; Function compile flags: /Odtp /RTCsu /ZI
_TEXT	ENDS
;	COMDAT ??0?$_Unique_ptr_base@VCameraDriver@@U?$default_delete@VCameraDriver@@@std@@$00@std@@QAE@PAVCameraDriver@@U?$default_delete@VCameraDriver@@@1@@Z
_TEXT	SEGMENT
_this$ = -8						; size = 4
__Ptr$ = 8						; size = 4
__Dt$ = 12						; size = 1
??0?$_Unique_ptr_base@VCameraDriver@@U?$default_delete@VCameraDriver@@@std@@$00@std@@QAE@PAVCameraDriver@@U?$default_delete@VCameraDriver@@@1@@Z PROC ; std::_Unique_ptr_base<CameraDriver,std::default_delete<CameraDriver>,1>::_Unique_ptr_base<CameraDriver,std::default_delete<CameraDriver>,1>, COMDAT
; _this$ = ecx

; 2165 : 		{	// construct with pointer and deleter

	push	ebp
	mov	ebp, esp
	sub	esp, 204				; 000000ccH
	push	ebx
	push	esi
	push	edi
	push	ecx
	lea	edi, DWORD PTR [ebp-204]
	mov	ecx, 51					; 00000033H
	mov	eax, -858993460				; ccccccccH
	rep stosd
	pop	ecx
	mov	DWORD PTR _this$[ebp], ecx
	mov	eax, DWORD PTR _this$[ebp]
	mov	ecx, DWORD PTR __Ptr$[ebp]
	mov	DWORD PTR [eax], ecx

; 2166 : 		}

	mov	eax, DWORD PTR _this$[ebp]
	pop	edi
	pop	esi
	pop	ebx
	mov	esp, ebp
	pop	ebp
	ret	8
??0?$_Unique_ptr_base@VCameraDriver@@U?$default_delete@VCameraDriver@@@std@@$00@std@@QAE@PAVCameraDriver@@U?$default_delete@VCameraDriver@@@1@@Z ENDP ; std::_Unique_ptr_base<CameraDriver,std::default_delete<CameraDriver>,1>::_Unique_ptr_base<CameraDriver,std::default_delete<CameraDriver>,1>
; Function compile flags: /Odtp /RTCsu /ZI
_TEXT	ENDS
;	COMDAT ??R?$default_delete@VCameraDriver@@@std@@QBEXPAVCameraDriver@@@Z
_TEXT	SEGMENT
tv71 = -232						; size = 4
$T39010 = -224						; size = 4
$T39011 = -212						; size = 4
_this$ = -8						; size = 4
__Ptr$ = 8						; size = 4
??R?$default_delete@VCameraDriver@@@std@@QBEXPAVCameraDriver@@@Z PROC ; std::default_delete<CameraDriver>::operator(), COMDAT
; _this$ = ecx

; 2066 : 		{	// delete a pointer

	push	ebp
	mov	ebp, esp
	sub	esp, 232				; 000000e8H
	push	ebx
	push	esi
	push	edi
	push	ecx
	lea	edi, DWORD PTR [ebp-232]
	mov	ecx, 58					; 0000003aH
	mov	eax, -858993460				; ccccccccH
	rep stosd
	pop	ecx
	mov	DWORD PTR _this$[ebp], ecx

; 2067 : 		if (0 < sizeof (_Ty))	// won't compile for incomplete type

	mov	eax, 1
	test	eax, eax
	je	SHORT $LN2@operator

; 2068 : 			delete _Ptr;

	mov	eax, DWORD PTR __Ptr$[ebp]
	mov	DWORD PTR $T39011[ebp], eax
	mov	ecx, DWORD PTR $T39011[ebp]
	mov	DWORD PTR $T39010[ebp], ecx
	cmp	DWORD PTR $T39010[ebp], 0
	je	SHORT $LN4@operator
	mov	esi, esp
	push	1
	mov	edx, DWORD PTR $T39010[ebp]
	mov	eax, DWORD PTR [edx]
	mov	ecx, DWORD PTR $T39010[ebp]
	mov	edx, DWORD PTR [eax+8]
	call	edx
	cmp	esi, esp
	call	__RTC_CheckEsp
	mov	DWORD PTR tv71[ebp], eax
	jmp	SHORT $LN2@operator
$LN4@operator:
	mov	DWORD PTR tv71[ebp], 0
$LN2@operator:

; 2069 : 		}

	pop	edi
	pop	esi
	pop	ebx
	add	esp, 232				; 000000e8H
	cmp	ebp, esp
	call	__RTC_CheckEsp
	mov	esp, ebp
	pop	ebp
	ret	4
??R?$default_delete@VCameraDriver@@@std@@QBEXPAVCameraDriver@@@Z ENDP ; std::default_delete<CameraDriver>::operator()
; Function compile flags: /Odtp /RTCsu /ZI
_TEXT	ENDS
;	COMDAT ?get_deleter@?$_Unique_ptr_base@VCameraDriver@@U?$default_delete@VCameraDriver@@@std@@$00@std@@QAEAAU?$default_delete@VCameraDriver@@@2@XZ
_TEXT	SEGMENT
_this$ = -8						; size = 4
?get_deleter@?$_Unique_ptr_base@VCameraDriver@@U?$default_delete@VCameraDriver@@@std@@$00@std@@QAEAAU?$default_delete@VCameraDriver@@@2@XZ PROC ; std::_Unique_ptr_base<CameraDriver,std::default_delete<CameraDriver>,1>::get_deleter, COMDAT
; _this$ = ecx

; 2176 : 		{	// return reference to deleter

	push	ebp
	mov	ebp, esp
	sub	esp, 204				; 000000ccH
	push	ebx
	push	esi
	push	edi
	push	ecx
	lea	edi, DWORD PTR [ebp-204]
	mov	ecx, 51					; 00000033H
	mov	eax, -858993460				; ccccccccH
	rep stosd
	pop	ecx
	mov	DWORD PTR _this$[ebp], ecx

; 2177 : 		return (*this);

	mov	eax, DWORD PTR _this$[ebp]

; 2178 : 		}

	pop	edi
	pop	esi
	pop	ebx
	mov	esp, ebp
	pop	ebp
	ret	0
?get_deleter@?$_Unique_ptr_base@VCameraDriver@@U?$default_delete@VCameraDriver@@@std@@$00@std@@QAEAAU?$default_delete@VCameraDriver@@@2@XZ ENDP ; std::_Unique_ptr_base<CameraDriver,std::default_delete<CameraDriver>,1>::get_deleter
_TEXT	ENDS
END
